
Robotarm.elf:     file format elf32-avr

Sections:
Idx Name          Size      VMA       LMA       File off  Algn
  0 .data         0000001c  00800100  0000211e  000021b2  2**0
                  CONTENTS, ALLOC, LOAD, DATA
  1 .text         0000211e  00000000  00000000  00000094  2**1
                  CONTENTS, ALLOC, LOAD, READONLY, CODE
  2 .bss          00000004  0080011c  0080011c  000021ce  2**0
                  ALLOC
  3 .comment      00000030  00000000  00000000  000021ce  2**0
                  CONTENTS, READONLY
  4 .note.gnu.avr.deviceinfo 00000040  00000000  00000000  00002200  2**2
                  CONTENTS, READONLY
  5 .debug_aranges 000002a8  00000000  00000000  00002240  2**0
                  CONTENTS, READONLY, DEBUGGING
  6 .debug_info   00003caf  00000000  00000000  000024e8  2**0
                  CONTENTS, READONLY, DEBUGGING
  7 .debug_abbrev 0000146e  00000000  00000000  00006197  2**0
                  CONTENTS, READONLY, DEBUGGING
  8 .debug_line   0000127c  00000000  00000000  00007605  2**0
                  CONTENTS, READONLY, DEBUGGING
  9 .debug_frame  00000900  00000000  00000000  00008884  2**2
                  CONTENTS, READONLY, DEBUGGING
 10 .debug_str    0000111c  00000000  00000000  00009184  2**0
                  CONTENTS, READONLY, DEBUGGING
 11 .debug_loc    0000241a  00000000  00000000  0000a2a0  2**0
                  CONTENTS, READONLY, DEBUGGING
 12 .debug_ranges 00000218  00000000  00000000  0000c6ba  2**0
                  CONTENTS, READONLY, DEBUGGING

Disassembly of section .text:

00000000 <__vectors>:
       0:	0c 94 73 00 	jmp	0xe6	; 0xe6 <__ctors_end>
       4:	0c 94 90 00 	jmp	0x120	; 0x120 <__bad_interrupt>
       8:	0c 94 90 00 	jmp	0x120	; 0x120 <__bad_interrupt>
       c:	0c 94 90 00 	jmp	0x120	; 0x120 <__bad_interrupt>
      10:	0c 94 90 00 	jmp	0x120	; 0x120 <__bad_interrupt>
      14:	0c 94 90 00 	jmp	0x120	; 0x120 <__bad_interrupt>
      18:	0c 94 90 00 	jmp	0x120	; 0x120 <__bad_interrupt>
      1c:	0c 94 90 00 	jmp	0x120	; 0x120 <__bad_interrupt>
      20:	0c 94 90 00 	jmp	0x120	; 0x120 <__bad_interrupt>
      24:	0c 94 90 00 	jmp	0x120	; 0x120 <__bad_interrupt>
      28:	0c 94 90 00 	jmp	0x120	; 0x120 <__bad_interrupt>
      2c:	0c 94 90 00 	jmp	0x120	; 0x120 <__bad_interrupt>
      30:	0c 94 90 00 	jmp	0x120	; 0x120 <__bad_interrupt>
      34:	0c 94 3e 08 	jmp	0x107c	; 0x107c <__vector_13>
      38:	0c 94 90 00 	jmp	0x120	; 0x120 <__bad_interrupt>
      3c:	0c 94 90 00 	jmp	0x120	; 0x120 <__bad_interrupt>
      40:	0c 94 90 00 	jmp	0x120	; 0x120 <__bad_interrupt>
      44:	0c 94 90 00 	jmp	0x120	; 0x120 <__bad_interrupt>
      48:	0c 94 90 00 	jmp	0x120	; 0x120 <__bad_interrupt>
      4c:	0c 94 90 00 	jmp	0x120	; 0x120 <__bad_interrupt>
      50:	0c 94 90 00 	jmp	0x120	; 0x120 <__bad_interrupt>
      54:	0c 94 90 00 	jmp	0x120	; 0x120 <__bad_interrupt>
      58:	0c 94 90 00 	jmp	0x120	; 0x120 <__bad_interrupt>
      5c:	0c 94 90 00 	jmp	0x120	; 0x120 <__bad_interrupt>
      60:	0c 94 90 00 	jmp	0x120	; 0x120 <__bad_interrupt>
      64:	0c 94 90 00 	jmp	0x120	; 0x120 <__bad_interrupt>
      68:	0f 02       	muls	r16, r31
      6a:	32 02       	muls	r19, r18
      6c:	54 02       	muls	r21, r20
      6e:	76 02       	muls	r23, r22
      70:	28 03       	fmul	r18, r16
      72:	98 02       	muls	r25, r24
      74:	ba 02       	muls	r27, r26
      76:	dd 02       	muls	r29, r29
      78:	00 03       	mulsu	r16, r16
      7a:	0a 02       	muls	r16, r26
      7c:	28 03       	fmul	r18, r16
      7e:	28 03       	fmul	r18, r16
      80:	28 03       	fmul	r18, r16
      82:	28 03       	fmul	r18, r16
      84:	28 03       	fmul	r18, r16
      86:	28 03       	fmul	r18, r16
      88:	28 03       	fmul	r18, r16
      8a:	23 03       	mulsu	r18, r19
      8c:	03 6e       	ori	r16, 0xE3	; 227
      8e:	db 36       	cpi	r29, 0x6B	; 107
      90:	3d 9a       	sbi	0x07, 5	; 7
      92:	99 99       	sbic	0x13, 1	; 19
      94:	99 3d       	cpi	r25, 0xD9	; 217
      96:	ab aa       	std	Y+51, r10	; 0x33
      98:	aa 2a       	or	r10, r26
      9a:	3e 00       	.word	0x003e	; ????
      9c:	00 00       	nop
      9e:	80 3f       	cpi	r24, 0xF0	; 240
      a0:	07 2c       	mov	r0, r7
      a2:	7a a5       	ldd	r23, Y+42	; 0x2a
      a4:	ba 6c       	ori	r27, 0xCA	; 202
      a6:	c5 90       	lpm	r12, Z+
      a8:	da 3b       	cpi	r29, 0xBA	; 186
      aa:	93 65       	ori	r25, 0x53	; 83
      ac:	fc 8b       	std	Y+20, r31	; 0x14
      ae:	bc 53       	subi	r27, 0x3C	; 60
      b0:	f8 10       	cpse	r15, r8
      b2:	fd 3c       	cpi	r31, 0xCD	; 205
      b4:	56 92       	lac	Z, r5
      b6:	83 4d       	sbci	r24, 0xD3	; 211
      b8:	bd 87       	std	Y+13, r27	; 0x0d
      ba:	9d 3a       	cpi	r25, 0xAD	; 173
      bc:	b6 3d       	cpi	r27, 0xD6	; 214
      be:	cb c9       	rjmp	.-3178   	; 0xfffff456 <__eeprom_end+0xff7ef456>
      c0:	bf 5b       	subi	r27, 0xBF	; 191
      c2:	be 73       	andi	r27, 0x3E	; 62
      c4:	da 0f       	add	r29, r26
      c6:	c9 3f       	cpi	r28, 0xF9	; 249
      c8:	05 a8       	ldd	r0, Z+53	; 0x35
      ca:	4c cd       	rjmp	.-1384   	; 0xfffffb64 <__eeprom_end+0xff7efb64>
      cc:	b2 d4       	rcall	.+2404   	; 0xa32 <__stack+0x133>
      ce:	4e b9       	out	0x0e, r20	; 14
      d0:	38 36       	cpi	r19, 0x68	; 104
      d2:	a9 02       	muls	r26, r25
      d4:	0c 50       	subi	r16, 0x0C	; 12
      d6:	b9 91       	ld	r27, Y+
      d8:	86 88       	ldd	r8, Z+22	; 0x16
      da:	08 3c       	cpi	r16, 0xC8	; 200
      dc:	a6 aa       	std	Z+54, r10	; 0x36
      de:	aa 2a       	or	r10, r26
      e0:	be 00       	.word	0x00be	; ????
      e2:	00 00       	nop
      e4:	80 3f       	cpi	r24, 0xF0	; 240

000000e6 <__ctors_end>:
      e6:	11 24       	eor	r1, r1
      e8:	1f be       	out	0x3f, r1	; 63
      ea:	cf ef       	ldi	r28, 0xFF	; 255
      ec:	d8 e0       	ldi	r29, 0x08	; 8
      ee:	de bf       	out	0x3e, r29	; 62
      f0:	cd bf       	out	0x3d, r28	; 61

000000f2 <__do_copy_data>:
      f2:	11 e0       	ldi	r17, 0x01	; 1
      f4:	a0 e0       	ldi	r26, 0x00	; 0
      f6:	b1 e0       	ldi	r27, 0x01	; 1
      f8:	ee e1       	ldi	r30, 0x1E	; 30
      fa:	f1 e2       	ldi	r31, 0x21	; 33
      fc:	02 c0       	rjmp	.+4      	; 0x102 <__do_copy_data+0x10>
      fe:	05 90       	lpm	r0, Z+
     100:	0d 92       	st	X+, r0
     102:	ac 31       	cpi	r26, 0x1C	; 28
     104:	b1 07       	cpc	r27, r17
     106:	d9 f7       	brne	.-10     	; 0xfe <__do_copy_data+0xc>

00000108 <__do_clear_bss>:
     108:	21 e0       	ldi	r18, 0x01	; 1
     10a:	ac e1       	ldi	r26, 0x1C	; 28
     10c:	b1 e0       	ldi	r27, 0x01	; 1
     10e:	01 c0       	rjmp	.+2      	; 0x112 <.do_clear_bss_start>

00000110 <.do_clear_bss_loop>:
     110:	1d 92       	st	X+, r1

00000112 <.do_clear_bss_start>:
     112:	a0 32       	cpi	r26, 0x20	; 32
     114:	b2 07       	cpc	r27, r18
     116:	e1 f7       	brne	.-8      	; 0x110 <.do_clear_bss_loop>
     118:	0e 94 63 08 	call	0x10c6	; 0x10c6 <main>
     11c:	0c 94 8d 10 	jmp	0x211a	; 0x211a <_exit>

00000120 <__bad_interrupt>:
     120:	0c 94 00 00 	jmp	0	; 0x0 <__vectors>

00000124 <_ZN11armGeometryC1Ev>:
	return ymm_;
}

float armGeometry::getZmm() const{
	return zmm_;
}
     124:	08 95       	ret

00000126 <_ZNK11armGeometry9getRotRadEv>:
float armGeometry::getRotRad() const{
	return rot_;
     126:	fc 01       	movw	r30, r24
     128:	64 85       	ldd	r22, Z+12	; 0x0c
     12a:	75 85       	ldd	r23, Z+13	; 0x0d
     12c:	86 85       	ldd	r24, Z+14	; 0x0e
     12e:	97 85       	ldd	r25, Z+15	; 0x0f
}
     130:	08 95       	ret

00000132 <_ZNK11armGeometry9getLowRadEv>:

float armGeometry::getLowRad() const{
	return low_;
     132:	fc 01       	movw	r30, r24
     134:	60 89       	ldd	r22, Z+16	; 0x10
     136:	71 89       	ldd	r23, Z+17	; 0x11
     138:	82 89       	ldd	r24, Z+18	; 0x12
     13a:	93 89       	ldd	r25, Z+19	; 0x13
}
     13c:	08 95       	ret

0000013e <_ZNK11armGeometry10getHighRadEv>:

float armGeometry::getHighRad() const{
	return high_;
     13e:	fc 01       	movw	r30, r24
     140:	64 89       	ldd	r22, Z+20	; 0x14
     142:	75 89       	ldd	r23, Z+21	; 0x15
     144:	86 89       	ldd	r24, Z+22	; 0x16
     146:	97 89       	ldd	r25, Z+23	; 0x17
}
     148:	08 95       	ret

0000014a <_ZN11armGeometry12calculateAngEv>:

void armGeometry::calculateAng(){
     14a:	4f 92       	push	r4
     14c:	5f 92       	push	r5
     14e:	6f 92       	push	r6
     150:	7f 92       	push	r7
     152:	8f 92       	push	r8
     154:	9f 92       	push	r9
     156:	af 92       	push	r10
     158:	bf 92       	push	r11
     15a:	cf 92       	push	r12
     15c:	df 92       	push	r13
     15e:	ef 92       	push	r14
     160:	ff 92       	push	r15
     162:	cf 93       	push	r28
     164:	df 93       	push	r29
     166:	cd b7       	in	r28, 0x3d	; 61
     168:	de b7       	in	r29, 0x3e	; 62
     16a:	2a 97       	sbiw	r28, 0x0a	; 10
     16c:	0f b6       	in	r0, 0x3f	; 63
     16e:	f8 94       	cli
     170:	de bf       	out	0x3e, r29	; 62
     172:	0f be       	out	0x3f, r0	; 63
     174:	cd bf       	out	0x3d, r28	; 61
     176:	9a 87       	std	Y+10, r25	; 0x0a
     178:	89 87       	std	Y+9, r24	; 0x09
	//Top view radius
	float RTop = sqrt((xmm_*xmm_)+(ymm_*ymm_));
     17a:	fc 01       	movw	r30, r24
     17c:	80 80       	ld	r8, Z
     17e:	91 80       	ldd	r9, Z+1	; 0x01
     180:	a2 80       	ldd	r10, Z+2	; 0x02
     182:	b3 80       	ldd	r11, Z+3	; 0x03
     184:	c4 80       	ldd	r12, Z+4	; 0x04
     186:	d5 80       	ldd	r13, Z+5	; 0x05
     188:	e6 80       	ldd	r14, Z+6	; 0x06
     18a:	f7 80       	ldd	r15, Z+7	; 0x07
     18c:	a5 01       	movw	r20, r10
     18e:	94 01       	movw	r18, r8
     190:	c5 01       	movw	r24, r10
     192:	b4 01       	movw	r22, r8
     194:	0e 94 7b 0f 	call	0x1ef6	; 0x1ef6 <__mulsf3>
     198:	2b 01       	movw	r4, r22
     19a:	3c 01       	movw	r6, r24
     19c:	a7 01       	movw	r20, r14
     19e:	96 01       	movw	r18, r12
     1a0:	c7 01       	movw	r24, r14
     1a2:	b6 01       	movw	r22, r12
     1a4:	0e 94 7b 0f 	call	0x1ef6	; 0x1ef6 <__mulsf3>
     1a8:	9b 01       	movw	r18, r22
     1aa:	ac 01       	movw	r20, r24
     1ac:	c3 01       	movw	r24, r6
     1ae:	b2 01       	movw	r22, r4
     1b0:	0e 94 f1 0c 	call	0x19e2	; 0x19e2 <__addsf3>
     1b4:	0e 94 f6 0f 	call	0x1fec	; 0x1fec <sqrt>
     1b8:	6b 01       	movw	r12, r22
     1ba:	7c 01       	movw	r14, r24
	//Side view radius from base to grapper
	float RSide = sqrt((RTop*RTop)+(zmm_*zmm_));
     1bc:	e9 85       	ldd	r30, Y+9	; 0x09
     1be:	fa 85       	ldd	r31, Y+10	; 0x0a
     1c0:	40 84       	ldd	r4, Z+8	; 0x08
     1c2:	51 84       	ldd	r5, Z+9	; 0x09
     1c4:	62 84       	ldd	r6, Z+10	; 0x0a
     1c6:	73 84       	ldd	r7, Z+11	; 0x0b
     1c8:	9b 01       	movw	r18, r22
     1ca:	ac 01       	movw	r20, r24
     1cc:	0e 94 7b 0f 	call	0x1ef6	; 0x1ef6 <__mulsf3>
     1d0:	69 83       	std	Y+1, r22	; 0x01
     1d2:	7a 83       	std	Y+2, r23	; 0x02
     1d4:	8b 83       	std	Y+3, r24	; 0x03
     1d6:	9c 83       	std	Y+4, r25	; 0x04
     1d8:	a3 01       	movw	r20, r6
     1da:	92 01       	movw	r18, r4
     1dc:	c3 01       	movw	r24, r6
     1de:	b2 01       	movw	r22, r4
     1e0:	0e 94 7b 0f 	call	0x1ef6	; 0x1ef6 <__mulsf3>
     1e4:	6d 83       	std	Y+5, r22	; 0x05
     1e6:	7e 83       	std	Y+6, r23	; 0x06
     1e8:	8f 83       	std	Y+7, r24	; 0x07
     1ea:	98 87       	std	Y+8, r25	; 0x08
     1ec:	2d 81       	ldd	r18, Y+5	; 0x05
     1ee:	3e 81       	ldd	r19, Y+6	; 0x06
     1f0:	4f 81       	ldd	r20, Y+7	; 0x07
     1f2:	58 85       	ldd	r21, Y+8	; 0x08
     1f4:	69 81       	ldd	r22, Y+1	; 0x01
     1f6:	7a 81       	ldd	r23, Y+2	; 0x02
     1f8:	8b 81       	ldd	r24, Y+3	; 0x03
     1fa:	9c 81       	ldd	r25, Y+4	; 0x04
     1fc:	0e 94 f1 0c 	call	0x19e2	; 0x19e2 <__addsf3>
     200:	0e 94 f6 0f 	call	0x1fec	; 0x1fec <sqrt>
     204:	69 83       	std	Y+1, r22	; 0x01
     206:	7a 83       	std	Y+2, r23	; 0x02
     208:	8b 83       	std	Y+3, r24	; 0x03
     20a:	9c 83       	std	Y+4, r25	; 0x04
	
	//Angle of base stepper motor 
	rot_ =asin(xmm_ / RTop);
     20c:	a7 01       	movw	r20, r14
     20e:	96 01       	movw	r18, r12
     210:	c5 01       	movw	r24, r10
     212:	b4 01       	movw	r22, r8
     214:	0e 94 82 0d 	call	0x1b04	; 0x1b04 <__divsf3>
     218:	0e 94 5d 0d 	call	0x1aba	; 0x1aba <asin>
     21c:	e9 85       	ldd	r30, Y+9	; 0x09
     21e:	fa 85       	ldd	r31, Y+10	; 0x0a
     220:	64 87       	std	Z+12, r22	; 0x0c
     222:	75 87       	std	Z+13, r23	; 0x0d
     224:	86 87       	std	Z+14, r24	; 0x0e
     226:	97 87       	std	Z+15, r25	; 0x0f
	//Angle of high stepper motor
	high_ = acos((RSide * 0.5) / 120.0) * 2.0;
     228:	20 e0       	ldi	r18, 0x00	; 0
     22a:	30 e0       	ldi	r19, 0x00	; 0
     22c:	40 e0       	ldi	r20, 0x00	; 0
     22e:	5f e3       	ldi	r21, 0x3F	; 63
     230:	69 81       	ldd	r22, Y+1	; 0x01
     232:	7a 81       	ldd	r23, Y+2	; 0x02
     234:	8b 81       	ldd	r24, Y+3	; 0x03
     236:	9c 81       	ldd	r25, Y+4	; 0x04
     238:	0e 94 7b 0f 	call	0x1ef6	; 0x1ef6 <__mulsf3>
     23c:	20 e0       	ldi	r18, 0x00	; 0
     23e:	30 e0       	ldi	r19, 0x00	; 0
     240:	40 ef       	ldi	r20, 0xF0	; 240
     242:	52 e4       	ldi	r21, 0x42	; 66
     244:	0e 94 82 0d 	call	0x1b04	; 0x1b04 <__divsf3>
     248:	0e 94 df 0c 	call	0x19be	; 0x19be <acos>
     24c:	9b 01       	movw	r18, r22
     24e:	ac 01       	movw	r20, r24
     250:	0e 94 f1 0c 	call	0x19e2	; 0x19e2 <__addsf3>
     254:	4b 01       	movw	r8, r22
     256:	5c 01       	movw	r10, r24
     258:	e9 85       	ldd	r30, Y+9	; 0x09
     25a:	fa 85       	ldd	r31, Y+10	; 0x0a
     25c:	64 8b       	std	Z+20, r22	; 0x14
     25e:	75 8b       	std	Z+21, r23	; 0x15
     260:	86 8b       	std	Z+22, r24	; 0x16
     262:	97 8b       	std	Z+23, r25	; 0x17
	//Angle of low stepper motor
	if (zmm_ > 0)
     264:	20 e0       	ldi	r18, 0x00	; 0
     266:	30 e0       	ldi	r19, 0x00	; 0
     268:	a9 01       	movw	r20, r18
     26a:	c3 01       	movw	r24, r6
     26c:	b2 01       	movw	r22, r4
     26e:	0e 94 76 0f 	call	0x1eec	; 0x1eec <__gesf2>
     272:	18 16       	cp	r1, r24
     274:	5c f5       	brge	.+86     	; 0x2cc <_ZN11armGeometry12calculateAngEv+0x182>
	{
		low_ = asin(RTop / RSide) + ((M_PI - high_) / 2.0) - (M_PI / 2.0);
     276:	29 81       	ldd	r18, Y+1	; 0x01
     278:	3a 81       	ldd	r19, Y+2	; 0x02
     27a:	4b 81       	ldd	r20, Y+3	; 0x03
     27c:	5c 81       	ldd	r21, Y+4	; 0x04
     27e:	c7 01       	movw	r24, r14
     280:	b6 01       	movw	r22, r12
     282:	0e 94 82 0d 	call	0x1b04	; 0x1b04 <__divsf3>
     286:	0e 94 5d 0d 	call	0x1aba	; 0x1aba <asin>
     28a:	6b 01       	movw	r12, r22
     28c:	7c 01       	movw	r14, r24
     28e:	a5 01       	movw	r20, r10
     290:	94 01       	movw	r18, r8
     292:	6b ed       	ldi	r22, 0xDB	; 219
     294:	7f e0       	ldi	r23, 0x0F	; 15
     296:	89 e4       	ldi	r24, 0x49	; 73
     298:	90 e4       	ldi	r25, 0x40	; 64
     29a:	0e 94 f0 0c 	call	0x19e0	; 0x19e0 <__subsf3>
     29e:	20 e0       	ldi	r18, 0x00	; 0
     2a0:	30 e0       	ldi	r19, 0x00	; 0
     2a2:	40 e0       	ldi	r20, 0x00	; 0
     2a4:	5f e3       	ldi	r21, 0x3F	; 63
     2a6:	0e 94 7b 0f 	call	0x1ef6	; 0x1ef6 <__mulsf3>
     2aa:	a7 01       	movw	r20, r14
     2ac:	96 01       	movw	r18, r12
     2ae:	0e 94 f1 0c 	call	0x19e2	; 0x19e2 <__addsf3>
     2b2:	2b ed       	ldi	r18, 0xDB	; 219
     2b4:	3f e0       	ldi	r19, 0x0F	; 15
     2b6:	49 ec       	ldi	r20, 0xC9	; 201
     2b8:	5f e3       	ldi	r21, 0x3F	; 63
     2ba:	0e 94 f0 0c 	call	0x19e0	; 0x19e0 <__subsf3>
     2be:	e9 85       	ldd	r30, Y+9	; 0x09
     2c0:	fa 85       	ldd	r31, Y+10	; 0x0a
     2c2:	60 8b       	std	Z+16, r22	; 0x10
     2c4:	71 8b       	std	Z+17, r23	; 0x11
     2c6:	82 8b       	std	Z+18, r24	; 0x12
     2c8:	93 8b       	std	Z+19, r25	; 0x13
     2ca:	36 c0       	rjmp	.+108    	; 0x338 <_ZN11armGeometry12calculateAngEv+0x1ee>
	} 
	else {
		low_ = M_PI - asin(RTop / RSide) + ((M_PI - high_) / 2.0) - (M_PI / 2.0);
     2cc:	29 81       	ldd	r18, Y+1	; 0x01
     2ce:	3a 81       	ldd	r19, Y+2	; 0x02
     2d0:	4b 81       	ldd	r20, Y+3	; 0x03
     2d2:	5c 81       	ldd	r21, Y+4	; 0x04
     2d4:	c7 01       	movw	r24, r14
     2d6:	b6 01       	movw	r22, r12
     2d8:	0e 94 82 0d 	call	0x1b04	; 0x1b04 <__divsf3>
     2dc:	0e 94 5d 0d 	call	0x1aba	; 0x1aba <asin>
     2e0:	2b 01       	movw	r4, r22
     2e2:	3c 01       	movw	r6, r24
     2e4:	a5 01       	movw	r20, r10
     2e6:	94 01       	movw	r18, r8
     2e8:	6b ed       	ldi	r22, 0xDB	; 219
     2ea:	7f e0       	ldi	r23, 0x0F	; 15
     2ec:	89 e4       	ldi	r24, 0x49	; 73
     2ee:	90 e4       	ldi	r25, 0x40	; 64
     2f0:	0e 94 f0 0c 	call	0x19e0	; 0x19e0 <__subsf3>
     2f4:	20 e0       	ldi	r18, 0x00	; 0
     2f6:	30 e0       	ldi	r19, 0x00	; 0
     2f8:	40 e0       	ldi	r20, 0x00	; 0
     2fa:	5f e3       	ldi	r21, 0x3F	; 63
     2fc:	0e 94 7b 0f 	call	0x1ef6	; 0x1ef6 <__mulsf3>
     300:	6b 01       	movw	r12, r22
     302:	7c 01       	movw	r14, r24
     304:	a3 01       	movw	r20, r6
     306:	92 01       	movw	r18, r4
     308:	6b ed       	ldi	r22, 0xDB	; 219
     30a:	7f e0       	ldi	r23, 0x0F	; 15
     30c:	89 e4       	ldi	r24, 0x49	; 73
     30e:	90 e4       	ldi	r25, 0x40	; 64
     310:	0e 94 f0 0c 	call	0x19e0	; 0x19e0 <__subsf3>
     314:	9b 01       	movw	r18, r22
     316:	ac 01       	movw	r20, r24
     318:	c7 01       	movw	r24, r14
     31a:	b6 01       	movw	r22, r12
     31c:	0e 94 f1 0c 	call	0x19e2	; 0x19e2 <__addsf3>
     320:	2b ed       	ldi	r18, 0xDB	; 219
     322:	3f e0       	ldi	r19, 0x0F	; 15
     324:	49 ec       	ldi	r20, 0xC9	; 201
     326:	5f e3       	ldi	r21, 0x3F	; 63
     328:	0e 94 f0 0c 	call	0x19e0	; 0x19e0 <__subsf3>
     32c:	e9 85       	ldd	r30, Y+9	; 0x09
     32e:	fa 85       	ldd	r31, Y+10	; 0x0a
     330:	60 8b       	std	Z+16, r22	; 0x10
     332:	71 8b       	std	Z+17, r23	; 0x11
     334:	82 8b       	std	Z+18, r24	; 0x12
     336:	93 8b       	std	Z+19, r25	; 0x13
	}
	
	 //Correct higher Angle as it is mechanically bounded width lower Motor
	 high_ = high_ + low_;
     338:	a5 01       	movw	r20, r10
     33a:	94 01       	movw	r18, r8
     33c:	e9 85       	ldd	r30, Y+9	; 0x09
     33e:	fa 85       	ldd	r31, Y+10	; 0x0a
     340:	60 89       	ldd	r22, Z+16	; 0x10
     342:	71 89       	ldd	r23, Z+17	; 0x11
     344:	82 89       	ldd	r24, Z+18	; 0x12
     346:	93 89       	ldd	r25, Z+19	; 0x13
     348:	0e 94 f1 0c 	call	0x19e2	; 0x19e2 <__addsf3>
     34c:	e9 85       	ldd	r30, Y+9	; 0x09
     34e:	fa 85       	ldd	r31, Y+10	; 0x0a
     350:	64 8b       	std	Z+20, r22	; 0x14
     352:	75 8b       	std	Z+21, r23	; 0x15
     354:	86 8b       	std	Z+22, r24	; 0x16
     356:	97 8b       	std	Z+23, r25	; 0x17
}
     358:	2a 96       	adiw	r28, 0x0a	; 10
     35a:	0f b6       	in	r0, 0x3f	; 63
     35c:	f8 94       	cli
     35e:	de bf       	out	0x3e, r29	; 62
     360:	0f be       	out	0x3f, r0	; 63
     362:	cd bf       	out	0x3d, r28	; 61
     364:	df 91       	pop	r29
     366:	cf 91       	pop	r28
     368:	ff 90       	pop	r15
     36a:	ef 90       	pop	r14
     36c:	df 90       	pop	r13
     36e:	cf 90       	pop	r12
     370:	bf 90       	pop	r11
     372:	af 90       	pop	r10
     374:	9f 90       	pop	r9
     376:	8f 90       	pop	r8
     378:	7f 90       	pop	r7
     37a:	6f 90       	pop	r6
     37c:	5f 90       	pop	r5
     37e:	4f 90       	pop	r4
     380:	08 95       	ret

00000382 <_ZN11armGeometry3setEfff>:
#include <math.h>
armGeometry::armGeometry(){
	
}

void armGeometry::set(float xmm, float ymm, float zmm){
     382:	cf 92       	push	r12
     384:	df 92       	push	r13
     386:	ef 92       	push	r14
     388:	ff 92       	push	r15
     38a:	0f 93       	push	r16
     38c:	1f 93       	push	r17
	xmm_ = xmm;
     38e:	fc 01       	movw	r30, r24
     390:	40 83       	st	Z, r20
     392:	51 83       	std	Z+1, r21	; 0x01
     394:	62 83       	std	Z+2, r22	; 0x02
     396:	73 83       	std	Z+3, r23	; 0x03
	ymm_ = ymm;
     398:	04 83       	std	Z+4, r16	; 0x04
     39a:	15 83       	std	Z+5, r17	; 0x05
     39c:	26 83       	std	Z+6, r18	; 0x06
     39e:	37 83       	std	Z+7, r19	; 0x07
	zmm_ = zmm;
     3a0:	c0 86       	std	Z+8, r12	; 0x08
     3a2:	d1 86       	std	Z+9, r13	; 0x09
     3a4:	e2 86       	std	Z+10, r14	; 0x0a
     3a6:	f3 86       	std	Z+11, r15	; 0x0b
	calculateAng();
     3a8:	0e 94 a5 00 	call	0x14a	; 0x14a <_ZN11armGeometry12calculateAngEv>
}
     3ac:	1f 91       	pop	r17
     3ae:	0f 91       	pop	r16
     3b0:	ff 90       	pop	r15
     3b2:	ef 90       	pop	r14
     3b4:	df 90       	pop	r13
     3b6:	cf 90       	pop	r12
     3b8:	08 95       	ret

000003ba <_ZN21BluetoothCommunicatorC1Ev>:
} //BluetoothCommunicator

bool BluetoothCommunicator::Connected()
{
	return true; //Check for high STATE pin from JDY
}
     3ba:	08 95       	ret

000003bc <_ZN21BluetoothCommunicator8ReadDataE5Point>:
Point BluetoothCommunicator::ReadData(Point oldTargetPoint)
{
     3bc:	6f 92       	push	r6
     3be:	7f 92       	push	r7
     3c0:	8f 92       	push	r8
     3c2:	9f 92       	push	r9
     3c4:	af 92       	push	r10
     3c6:	bf 92       	push	r11
     3c8:	cf 92       	push	r12
     3ca:	df 92       	push	r13
     3cc:	ef 92       	push	r14
     3ce:	ff 92       	push	r15
     3d0:	0f 93       	push	r16
     3d2:	1f 93       	push	r17
     3d4:	cf 93       	push	r28
     3d6:	df 93       	push	r29
     3d8:	cd b7       	in	r28, 0x3d	; 61
     3da:	de b7       	in	r29, 0x3e	; 62
     3dc:	60 97       	sbiw	r28, 0x10	; 16
     3de:	0f b6       	in	r0, 0x3f	; 63
     3e0:	f8 94       	cli
     3e2:	de bf       	out	0x3e, r29	; 62
     3e4:	0f be       	out	0x3f, r0	; 63
     3e6:	cd bf       	out	0x3d, r28	; 61
     3e8:	3c 01       	movw	r6, r24
	Point toReturn = {0,0,0,0};
	SendString(UART0,"ReadData\n\r");
     3ea:	60 e1       	ldi	r22, 0x10	; 16
     3ec:	71 e0       	ldi	r23, 0x01	; 1
     3ee:	80 ec       	ldi	r24, 0xC0	; 192
     3f0:	90 e0       	ldi	r25, 0x00	; 0
     3f2:	0e 94 ca 0c 	call	0x1994	; 0x1994 <_Z10SendStringjPKc>
	char data = {ReadChar(UART0)};
     3f6:	80 ec       	ldi	r24, 0xC0	; 192
     3f8:	90 e0       	ldi	r25, 0x00	; 0
     3fa:	0e 94 be 0c 	call	0x197c	; 0x197c <_Z8ReadCharj>
	int hyp_factor = 2;
	int a_factor = 3;
	switch(data)
     3fe:	90 e0       	ldi	r25, 0x00	; 0
     400:	fc 01       	movw	r30, r24
     402:	f0 97       	sbiw	r30, 0x30	; 48
     404:	e2 31       	cpi	r30, 0x12	; 18
     406:	f1 05       	cpc	r31, r1
     408:	08 f0       	brcs	.+2      	; 0x40c <__LOCK_REGION_LENGTH__+0xc>
     40a:	22 c1       	rjmp	.+580    	; 0x650 <__LOCK_REGION_LENGTH__+0x250>
     40c:	ec 5c       	subi	r30, 0xCC	; 204
     40e:	ff 4f       	sbci	r31, 0xFF	; 255
     410:	0c 94 6d 10 	jmp	0x20da	; 0x20da <__tablejump2__>
			break;
		case '8': //right-forward
			return calcPoint(oldTargetPoint,-1*a_factor,1*hyp_factor);
			break;
		case '9': //up
			toReturn.zmm_ = 1;
     414:	80 e0       	ldi	r24, 0x00	; 0
     416:	90 e0       	ldi	r25, 0x00	; 0
     418:	a0 e8       	ldi	r26, 0x80	; 128
     41a:	bf e3       	ldi	r27, 0x3F	; 63
     41c:	1c c1       	rjmp	.+568    	; 0x656 <__LOCK_REGION_LENGTH__+0x256>
	int hyp_factor = 2;
	int a_factor = 3;
	switch(data)
	{
		case '0'://left-backwards
			return calcPoint(oldTargetPoint,1*a_factor,-1*hyp_factor);
     41e:	80 ec       	ldi	r24, 0xC0	; 192
     420:	8f 93       	push	r24
     422:	1f 92       	push	r1
     424:	1f 92       	push	r1
     426:	1f 92       	push	r1
     428:	80 e4       	ldi	r24, 0x40	; 64
     42a:	8f 93       	push	r24
     42c:	8f 93       	push	r24
     42e:	1f 92       	push	r1
     430:	1f 92       	push	r1
     432:	89 a0       	ldd	r8, Y+33	; 0x21
     434:	9a a0       	ldd	r9, Y+34	; 0x22
     436:	ab a0       	ldd	r10, Y+35	; 0x23
     438:	bc a0       	ldd	r11, Y+36	; 0x24
     43a:	cd a0       	ldd	r12, Y+37	; 0x25
     43c:	de a0       	ldd	r13, Y+38	; 0x26
     43e:	ef a0       	ldd	r14, Y+39	; 0x27
     440:	f8 a4       	ldd	r15, Y+40	; 0x28
     442:	09 a5       	ldd	r16, Y+41	; 0x29
     444:	1a a5       	ldd	r17, Y+42	; 0x2a
     446:	2b a5       	ldd	r18, Y+43	; 0x2b
     448:	3c a5       	ldd	r19, Y+44	; 0x2c
     44a:	4d a5       	ldd	r20, Y+45	; 0x2d
     44c:	5e a5       	ldd	r21, Y+46	; 0x2e
     44e:	6f a5       	ldd	r22, Y+47	; 0x2f
     450:	78 a9       	ldd	r23, Y+48	; 0x30
     452:	c3 01       	movw	r24, r6
     454:	0e 94 70 0a 	call	0x14e0	; 0x14e0 <_Z9calcPoint5Pointdd>
     458:	0f b6       	in	r0, 0x3f	; 63
     45a:	f8 94       	cli
     45c:	de bf       	out	0x3e, r29	; 62
     45e:	0f be       	out	0x3f, r0	; 63
     460:	cd bf       	out	0x3d, r28	; 61
     462:	33 c1       	rjmp	.+614    	; 0x6ca <__LOCK_REGION_LENGTH__+0x2ca>
			break;
		case '1'://left
			return calcPoint(oldTargetPoint,1*a_factor,0*hyp_factor);
     464:	1f 92       	push	r1
     466:	1f 92       	push	r1
     468:	1f 92       	push	r1
     46a:	1f 92       	push	r1
     46c:	80 e4       	ldi	r24, 0x40	; 64
     46e:	8f 93       	push	r24
     470:	8f 93       	push	r24
     472:	1f 92       	push	r1
     474:	1f 92       	push	r1
     476:	89 a0       	ldd	r8, Y+33	; 0x21
     478:	9a a0       	ldd	r9, Y+34	; 0x22
     47a:	ab a0       	ldd	r10, Y+35	; 0x23
     47c:	bc a0       	ldd	r11, Y+36	; 0x24
     47e:	cd a0       	ldd	r12, Y+37	; 0x25
     480:	de a0       	ldd	r13, Y+38	; 0x26
     482:	ef a0       	ldd	r14, Y+39	; 0x27
     484:	f8 a4       	ldd	r15, Y+40	; 0x28
     486:	09 a5       	ldd	r16, Y+41	; 0x29
     488:	1a a5       	ldd	r17, Y+42	; 0x2a
     48a:	2b a5       	ldd	r18, Y+43	; 0x2b
     48c:	3c a5       	ldd	r19, Y+44	; 0x2c
     48e:	4d a5       	ldd	r20, Y+45	; 0x2d
     490:	5e a5       	ldd	r21, Y+46	; 0x2e
     492:	6f a5       	ldd	r22, Y+47	; 0x2f
     494:	78 a9       	ldd	r23, Y+48	; 0x30
     496:	c3 01       	movw	r24, r6
     498:	0e 94 70 0a 	call	0x14e0	; 0x14e0 <_Z9calcPoint5Pointdd>
     49c:	0f b6       	in	r0, 0x3f	; 63
     49e:	f8 94       	cli
     4a0:	de bf       	out	0x3e, r29	; 62
     4a2:	0f be       	out	0x3f, r0	; 63
     4a4:	cd bf       	out	0x3d, r28	; 61
     4a6:	11 c1       	rjmp	.+546    	; 0x6ca <__LOCK_REGION_LENGTH__+0x2ca>
			break;
		case '2'://left-forward
			return calcPoint(oldTargetPoint,1*a_factor,1*hyp_factor);
     4a8:	80 e4       	ldi	r24, 0x40	; 64
     4aa:	8f 93       	push	r24
     4ac:	1f 92       	push	r1
     4ae:	1f 92       	push	r1
     4b0:	1f 92       	push	r1
     4b2:	8f 93       	push	r24
     4b4:	8f 93       	push	r24
     4b6:	1f 92       	push	r1
     4b8:	1f 92       	push	r1
     4ba:	89 a0       	ldd	r8, Y+33	; 0x21
     4bc:	9a a0       	ldd	r9, Y+34	; 0x22
     4be:	ab a0       	ldd	r10, Y+35	; 0x23
     4c0:	bc a0       	ldd	r11, Y+36	; 0x24
     4c2:	cd a0       	ldd	r12, Y+37	; 0x25
     4c4:	de a0       	ldd	r13, Y+38	; 0x26
     4c6:	ef a0       	ldd	r14, Y+39	; 0x27
     4c8:	f8 a4       	ldd	r15, Y+40	; 0x28
     4ca:	09 a5       	ldd	r16, Y+41	; 0x29
     4cc:	1a a5       	ldd	r17, Y+42	; 0x2a
     4ce:	2b a5       	ldd	r18, Y+43	; 0x2b
     4d0:	3c a5       	ldd	r19, Y+44	; 0x2c
     4d2:	4d a5       	ldd	r20, Y+45	; 0x2d
     4d4:	5e a5       	ldd	r21, Y+46	; 0x2e
     4d6:	6f a5       	ldd	r22, Y+47	; 0x2f
     4d8:	78 a9       	ldd	r23, Y+48	; 0x30
     4da:	c3 01       	movw	r24, r6
     4dc:	0e 94 70 0a 	call	0x14e0	; 0x14e0 <_Z9calcPoint5Pointdd>
     4e0:	0f b6       	in	r0, 0x3f	; 63
     4e2:	f8 94       	cli
     4e4:	de bf       	out	0x3e, r29	; 62
     4e6:	0f be       	out	0x3f, r0	; 63
     4e8:	cd bf       	out	0x3d, r28	; 61
     4ea:	ef c0       	rjmp	.+478    	; 0x6ca <__LOCK_REGION_LENGTH__+0x2ca>
			break;
		case '3'://backwards
			return calcPoint(oldTargetPoint,0*a_factor,-1*hyp_factor);
     4ec:	80 ec       	ldi	r24, 0xC0	; 192
     4ee:	8f 93       	push	r24
     4f0:	1f 92       	push	r1
     4f2:	1f 92       	push	r1
     4f4:	1f 92       	push	r1
     4f6:	1f 92       	push	r1
     4f8:	1f 92       	push	r1
     4fa:	1f 92       	push	r1
     4fc:	1f 92       	push	r1
     4fe:	89 a0       	ldd	r8, Y+33	; 0x21
     500:	9a a0       	ldd	r9, Y+34	; 0x22
     502:	ab a0       	ldd	r10, Y+35	; 0x23
     504:	bc a0       	ldd	r11, Y+36	; 0x24
     506:	cd a0       	ldd	r12, Y+37	; 0x25
     508:	de a0       	ldd	r13, Y+38	; 0x26
     50a:	ef a0       	ldd	r14, Y+39	; 0x27
     50c:	f8 a4       	ldd	r15, Y+40	; 0x28
     50e:	09 a5       	ldd	r16, Y+41	; 0x29
     510:	1a a5       	ldd	r17, Y+42	; 0x2a
     512:	2b a5       	ldd	r18, Y+43	; 0x2b
     514:	3c a5       	ldd	r19, Y+44	; 0x2c
     516:	4d a5       	ldd	r20, Y+45	; 0x2d
     518:	5e a5       	ldd	r21, Y+46	; 0x2e
     51a:	6f a5       	ldd	r22, Y+47	; 0x2f
     51c:	78 a9       	ldd	r23, Y+48	; 0x30
     51e:	c3 01       	movw	r24, r6
     520:	0e 94 70 0a 	call	0x14e0	; 0x14e0 <_Z9calcPoint5Pointdd>
     524:	0f b6       	in	r0, 0x3f	; 63
     526:	f8 94       	cli
     528:	de bf       	out	0x3e, r29	; 62
     52a:	0f be       	out	0x3f, r0	; 63
     52c:	cd bf       	out	0x3d, r28	; 61
     52e:	cd c0       	rjmp	.+410    	; 0x6ca <__LOCK_REGION_LENGTH__+0x2ca>
			toReturn.xmm_ = 0;
			toReturn.ymm_ = 0;
			toReturn.zmm_ = 0;
			break;
		case '5'://forward
			return calcPoint(oldTargetPoint,0*a_factor,1*hyp_factor);
     530:	80 e4       	ldi	r24, 0x40	; 64
     532:	8f 93       	push	r24
     534:	1f 92       	push	r1
     536:	1f 92       	push	r1
     538:	1f 92       	push	r1
     53a:	1f 92       	push	r1
     53c:	1f 92       	push	r1
     53e:	1f 92       	push	r1
     540:	1f 92       	push	r1
     542:	89 a0       	ldd	r8, Y+33	; 0x21
     544:	9a a0       	ldd	r9, Y+34	; 0x22
     546:	ab a0       	ldd	r10, Y+35	; 0x23
     548:	bc a0       	ldd	r11, Y+36	; 0x24
     54a:	cd a0       	ldd	r12, Y+37	; 0x25
     54c:	de a0       	ldd	r13, Y+38	; 0x26
     54e:	ef a0       	ldd	r14, Y+39	; 0x27
     550:	f8 a4       	ldd	r15, Y+40	; 0x28
     552:	09 a5       	ldd	r16, Y+41	; 0x29
     554:	1a a5       	ldd	r17, Y+42	; 0x2a
     556:	2b a5       	ldd	r18, Y+43	; 0x2b
     558:	3c a5       	ldd	r19, Y+44	; 0x2c
     55a:	4d a5       	ldd	r20, Y+45	; 0x2d
     55c:	5e a5       	ldd	r21, Y+46	; 0x2e
     55e:	6f a5       	ldd	r22, Y+47	; 0x2f
     560:	78 a9       	ldd	r23, Y+48	; 0x30
     562:	c3 01       	movw	r24, r6
     564:	0e 94 70 0a 	call	0x14e0	; 0x14e0 <_Z9calcPoint5Pointdd>
     568:	0f b6       	in	r0, 0x3f	; 63
     56a:	f8 94       	cli
     56c:	de bf       	out	0x3e, r29	; 62
     56e:	0f be       	out	0x3f, r0	; 63
     570:	cd bf       	out	0x3d, r28	; 61
     572:	ab c0       	rjmp	.+342    	; 0x6ca <__LOCK_REGION_LENGTH__+0x2ca>
			break;
		case '6'://right-backwards
			return calcPoint(oldTargetPoint,-1*a_factor,-1*hyp_factor);
     574:	80 ec       	ldi	r24, 0xC0	; 192
     576:	8f 93       	push	r24
     578:	1f 92       	push	r1
     57a:	1f 92       	push	r1
     57c:	1f 92       	push	r1
     57e:	8f 93       	push	r24
     580:	80 e4       	ldi	r24, 0x40	; 64
     582:	8f 93       	push	r24
     584:	1f 92       	push	r1
     586:	1f 92       	push	r1
     588:	89 a0       	ldd	r8, Y+33	; 0x21
     58a:	9a a0       	ldd	r9, Y+34	; 0x22
     58c:	ab a0       	ldd	r10, Y+35	; 0x23
     58e:	bc a0       	ldd	r11, Y+36	; 0x24
     590:	cd a0       	ldd	r12, Y+37	; 0x25
     592:	de a0       	ldd	r13, Y+38	; 0x26
     594:	ef a0       	ldd	r14, Y+39	; 0x27
     596:	f8 a4       	ldd	r15, Y+40	; 0x28
     598:	09 a5       	ldd	r16, Y+41	; 0x29
     59a:	1a a5       	ldd	r17, Y+42	; 0x2a
     59c:	2b a5       	ldd	r18, Y+43	; 0x2b
     59e:	3c a5       	ldd	r19, Y+44	; 0x2c
     5a0:	4d a5       	ldd	r20, Y+45	; 0x2d
     5a2:	5e a5       	ldd	r21, Y+46	; 0x2e
     5a4:	6f a5       	ldd	r22, Y+47	; 0x2f
     5a6:	78 a9       	ldd	r23, Y+48	; 0x30
     5a8:	c3 01       	movw	r24, r6
     5aa:	0e 94 70 0a 	call	0x14e0	; 0x14e0 <_Z9calcPoint5Pointdd>
     5ae:	0f b6       	in	r0, 0x3f	; 63
     5b0:	f8 94       	cli
     5b2:	de bf       	out	0x3e, r29	; 62
     5b4:	0f be       	out	0x3f, r0	; 63
     5b6:	cd bf       	out	0x3d, r28	; 61
     5b8:	88 c0       	rjmp	.+272    	; 0x6ca <__LOCK_REGION_LENGTH__+0x2ca>
			break;
		case '7'://right
			return calcPoint(oldTargetPoint,-1*a_factor,0*hyp_factor);
     5ba:	1f 92       	push	r1
     5bc:	1f 92       	push	r1
     5be:	1f 92       	push	r1
     5c0:	1f 92       	push	r1
     5c2:	80 ec       	ldi	r24, 0xC0	; 192
     5c4:	8f 93       	push	r24
     5c6:	80 e4       	ldi	r24, 0x40	; 64
     5c8:	8f 93       	push	r24
     5ca:	1f 92       	push	r1
     5cc:	1f 92       	push	r1
     5ce:	89 a0       	ldd	r8, Y+33	; 0x21
     5d0:	9a a0       	ldd	r9, Y+34	; 0x22
     5d2:	ab a0       	ldd	r10, Y+35	; 0x23
     5d4:	bc a0       	ldd	r11, Y+36	; 0x24
     5d6:	cd a0       	ldd	r12, Y+37	; 0x25
     5d8:	de a0       	ldd	r13, Y+38	; 0x26
     5da:	ef a0       	ldd	r14, Y+39	; 0x27
     5dc:	f8 a4       	ldd	r15, Y+40	; 0x28
     5de:	09 a5       	ldd	r16, Y+41	; 0x29
     5e0:	1a a5       	ldd	r17, Y+42	; 0x2a
     5e2:	2b a5       	ldd	r18, Y+43	; 0x2b
     5e4:	3c a5       	ldd	r19, Y+44	; 0x2c
     5e6:	4d a5       	ldd	r20, Y+45	; 0x2d
     5e8:	5e a5       	ldd	r21, Y+46	; 0x2e
     5ea:	6f a5       	ldd	r22, Y+47	; 0x2f
     5ec:	78 a9       	ldd	r23, Y+48	; 0x30
     5ee:	c3 01       	movw	r24, r6
     5f0:	0e 94 70 0a 	call	0x14e0	; 0x14e0 <_Z9calcPoint5Pointdd>
     5f4:	0f b6       	in	r0, 0x3f	; 63
     5f6:	f8 94       	cli
     5f8:	de bf       	out	0x3e, r29	; 62
     5fa:	0f be       	out	0x3f, r0	; 63
     5fc:	cd bf       	out	0x3d, r28	; 61
     5fe:	65 c0       	rjmp	.+202    	; 0x6ca <__LOCK_REGION_LENGTH__+0x2ca>
			break;
		case '8': //right-forward
			return calcPoint(oldTargetPoint,-1*a_factor,1*hyp_factor);
     600:	80 e4       	ldi	r24, 0x40	; 64
     602:	8f 93       	push	r24
     604:	1f 92       	push	r1
     606:	1f 92       	push	r1
     608:	1f 92       	push	r1
     60a:	90 ec       	ldi	r25, 0xC0	; 192
     60c:	9f 93       	push	r25
     60e:	8f 93       	push	r24
     610:	1f 92       	push	r1
     612:	1f 92       	push	r1
     614:	89 a0       	ldd	r8, Y+33	; 0x21
     616:	9a a0       	ldd	r9, Y+34	; 0x22
     618:	ab a0       	ldd	r10, Y+35	; 0x23
     61a:	bc a0       	ldd	r11, Y+36	; 0x24
     61c:	cd a0       	ldd	r12, Y+37	; 0x25
     61e:	de a0       	ldd	r13, Y+38	; 0x26
     620:	ef a0       	ldd	r14, Y+39	; 0x27
     622:	f8 a4       	ldd	r15, Y+40	; 0x28
     624:	09 a5       	ldd	r16, Y+41	; 0x29
     626:	1a a5       	ldd	r17, Y+42	; 0x2a
     628:	2b a5       	ldd	r18, Y+43	; 0x2b
     62a:	3c a5       	ldd	r19, Y+44	; 0x2c
     62c:	4d a5       	ldd	r20, Y+45	; 0x2d
     62e:	5e a5       	ldd	r21, Y+46	; 0x2e
     630:	6f a5       	ldd	r22, Y+47	; 0x2f
     632:	78 a9       	ldd	r23, Y+48	; 0x30
     634:	c3 01       	movw	r24, r6
     636:	0e 94 70 0a 	call	0x14e0	; 0x14e0 <_Z9calcPoint5Pointdd>
     63a:	0f b6       	in	r0, 0x3f	; 63
     63c:	f8 94       	cli
     63e:	de bf       	out	0x3e, r29	; 62
     640:	0f be       	out	0x3f, r0	; 63
     642:	cd bf       	out	0x3d, r28	; 61
     644:	42 c0       	rjmp	.+132    	; 0x6ca <__LOCK_REGION_LENGTH__+0x2ca>
			break;
		case '9': //up
			toReturn.zmm_ = 1;
			break;
		case 'A': //down
			toReturn.zmm_ = -1;
     646:	80 e0       	ldi	r24, 0x00	; 0
     648:	90 e0       	ldi	r25, 0x00	; 0
     64a:	a0 e8       	ldi	r26, 0x80	; 128
     64c:	bf eb       	ldi	r27, 0xBF	; 191
			break;
     64e:	03 c0       	rjmp	.+6      	; 0x656 <__LOCK_REGION_LENGTH__+0x256>
			return calcPoint(oldTargetPoint,0*a_factor,-1*hyp_factor);
			break;
		case '4'://stay still
			toReturn.xmm_ = 0;
			toReturn.ymm_ = 0;
			toReturn.zmm_ = 0;
     650:	80 e0       	ldi	r24, 0x00	; 0
     652:	90 e0       	ldi	r25, 0x00	; 0
     654:	dc 01       	movw	r26, r24
	}
	toReturn.emm_ *= 1;
	toReturn.zmm_ *= 1;
	toReturn.ymm_ *= 1;
	toReturn.xmm_ *= 1;
	return addPoints(toReturn,oldTargetPoint);
     656:	19 82       	std	Y+1, r1	; 0x01
     658:	1a 82       	std	Y+2, r1	; 0x02
     65a:	1b 82       	std	Y+3, r1	; 0x03
     65c:	1c 82       	std	Y+4, r1	; 0x04
     65e:	1d 82       	std	Y+5, r1	; 0x05
     660:	1e 82       	std	Y+6, r1	; 0x06
     662:	1f 82       	std	Y+7, r1	; 0x07
     664:	18 86       	std	Y+8, r1	; 0x08
     666:	89 87       	std	Y+9, r24	; 0x09
     668:	9a 87       	std	Y+10, r25	; 0x0a
     66a:	ab 87       	std	Y+11, r26	; 0x0b
     66c:	bc 87       	std	Y+12, r27	; 0x0c
     66e:	1d 86       	std	Y+13, r1	; 0x0d
     670:	1e 86       	std	Y+14, r1	; 0x0e
     672:	1f 86       	std	Y+15, r1	; 0x0f
     674:	18 8a       	std	Y+16, r1	; 0x10
     676:	8d b7       	in	r24, 0x3d	; 61
     678:	9e b7       	in	r25, 0x3e	; 62
     67a:	40 97       	sbiw	r24, 0x10	; 16
     67c:	0f b6       	in	r0, 0x3f	; 63
     67e:	f8 94       	cli
     680:	9e bf       	out	0x3e, r25	; 62
     682:	0f be       	out	0x3f, r0	; 63
     684:	8d bf       	out	0x3d, r24	; 61
     686:	ad b7       	in	r26, 0x3d	; 61
     688:	be b7       	in	r27, 0x3e	; 62
     68a:	11 96       	adiw	r26, 0x01	; 1
     68c:	80 e1       	ldi	r24, 0x10	; 16
     68e:	fe 01       	movw	r30, r28
     690:	b1 96       	adiw	r30, 0x21	; 33
     692:	01 90       	ld	r0, Z+
     694:	0d 92       	st	X+, r0
     696:	8a 95       	dec	r24
     698:	e1 f7       	brne	.-8      	; 0x692 <__LOCK_REGION_LENGTH__+0x292>
     69a:	89 80       	ldd	r8, Y+1	; 0x01
     69c:	9a 80       	ldd	r9, Y+2	; 0x02
     69e:	ab 80       	ldd	r10, Y+3	; 0x03
     6a0:	bc 80       	ldd	r11, Y+4	; 0x04
     6a2:	cd 80       	ldd	r12, Y+5	; 0x05
     6a4:	de 80       	ldd	r13, Y+6	; 0x06
     6a6:	ef 80       	ldd	r14, Y+7	; 0x07
     6a8:	f8 84       	ldd	r15, Y+8	; 0x08
     6aa:	09 85       	ldd	r16, Y+9	; 0x09
     6ac:	1a 85       	ldd	r17, Y+10	; 0x0a
     6ae:	2b 85       	ldd	r18, Y+11	; 0x0b
     6b0:	3c 85       	ldd	r19, Y+12	; 0x0c
     6b2:	4d 85       	ldd	r20, Y+13	; 0x0d
     6b4:	5e 85       	ldd	r21, Y+14	; 0x0e
     6b6:	6f 85       	ldd	r22, Y+15	; 0x0f
     6b8:	78 89       	ldd	r23, Y+16	; 0x10
     6ba:	c3 01       	movw	r24, r6
     6bc:	0e 94 f1 0b 	call	0x17e2	; 0x17e2 <_Z9addPoints5PointS_>
     6c0:	0f b6       	in	r0, 0x3f	; 63
     6c2:	f8 94       	cli
     6c4:	de bf       	out	0x3e, r29	; 62
     6c6:	0f be       	out	0x3f, r0	; 63
     6c8:	cd bf       	out	0x3d, r28	; 61
     6ca:	c3 01       	movw	r24, r6
     6cc:	60 96       	adiw	r28, 0x10	; 16
     6ce:	0f b6       	in	r0, 0x3f	; 63
     6d0:	f8 94       	cli
     6d2:	de bf       	out	0x3e, r29	; 62
     6d4:	0f be       	out	0x3f, r0	; 63
     6d6:	cd bf       	out	0x3d, r28	; 61
     6d8:	df 91       	pop	r29
     6da:	cf 91       	pop	r28
     6dc:	1f 91       	pop	r17
     6de:	0f 91       	pop	r16
     6e0:	ff 90       	pop	r15
     6e2:	ef 90       	pop	r14
     6e4:	df 90       	pop	r13
     6e6:	cf 90       	pop	r12
     6e8:	bf 90       	pop	r11
     6ea:	af 90       	pop	r10
     6ec:	9f 90       	pop	r9
     6ee:	8f 90       	pop	r8
     6f0:	7f 90       	pop	r7
     6f2:	6f 90       	pop	r6
     6f4:	08 95       	ret

000006f6 <_ZN13InterpolationC1Ev>:
	p2.xmm_ = p2x;
	p2.ymm_ = p2y;
	p2.zmm_ = p2z;
	p2.emm_ = p2e;
	setInterpolation(p1, p2, v);
}
     6f6:	21 e0       	ldi	r18, 0x01	; 1
     6f8:	fc 01       	movw	r30, r24
     6fa:	20 83       	st	Z, r18
     6fc:	08 95       	ret

000006fe <_ZN13Interpolation13setCurrentPosE5Point>:
     6fe:	8f 92       	push	r8
     700:	9f 92       	push	r9
     702:	af 92       	push	r10
     704:	bf 92       	push	r11
     706:	cf 92       	push	r12
     708:	df 92       	push	r13
     70a:	ef 92       	push	r14
     70c:	ff 92       	push	r15
     70e:	0f 93       	push	r16
     710:	1f 93       	push	r17
     712:	cf 93       	push	r28
     714:	df 93       	push	r29
     716:	cd b7       	in	r28, 0x3d	; 61
     718:	de b7       	in	r29, 0x3e	; 62
     71a:	60 97       	sbiw	r28, 0x10	; 16
     71c:	0f b6       	in	r0, 0x3f	; 63
     71e:	f8 94       	cli
     720:	de bf       	out	0x3e, r29	; 62
     722:	0f be       	out	0x3f, r0	; 63
     724:	cd bf       	out	0x3d, r28	; 61
     726:	fc 01       	movw	r30, r24
     728:	89 82       	std	Y+1, r8	; 0x01
     72a:	9a 82       	std	Y+2, r9	; 0x02
     72c:	ab 82       	std	Y+3, r10	; 0x03
     72e:	bc 82       	std	Y+4, r11	; 0x04
     730:	cd 82       	std	Y+5, r12	; 0x05
     732:	de 82       	std	Y+6, r13	; 0x06
     734:	ef 82       	std	Y+7, r14	; 0x07
     736:	f8 86       	std	Y+8, r15	; 0x08
     738:	09 87       	std	Y+9, r16	; 0x09
     73a:	1a 87       	std	Y+10, r17	; 0x0a
     73c:	2b 87       	std	Y+11, r18	; 0x0b
     73e:	3c 87       	std	Y+12, r19	; 0x0c
     740:	4d 87       	std	Y+13, r20	; 0x0d
     742:	5e 87       	std	Y+14, r21	; 0x0e
     744:	6f 87       	std	Y+15, r22	; 0x0f
     746:	78 8b       	std	Y+16, r23	; 0x10
     748:	89 81       	ldd	r24, Y+1	; 0x01
     74a:	9a 81       	ldd	r25, Y+2	; 0x02
     74c:	ab 81       	ldd	r26, Y+3	; 0x03
     74e:	bc 81       	ldd	r27, Y+4	; 0x04
     750:	85 83       	std	Z+5, r24	; 0x05
     752:	96 83       	std	Z+6, r25	; 0x06
     754:	a7 83       	std	Z+7, r26	; 0x07
     756:	b0 87       	std	Z+8, r27	; 0x08
     758:	8d 81       	ldd	r24, Y+5	; 0x05
     75a:	9e 81       	ldd	r25, Y+6	; 0x06
     75c:	af 81       	ldd	r26, Y+7	; 0x07
     75e:	b8 85       	ldd	r27, Y+8	; 0x08
     760:	81 87       	std	Z+9, r24	; 0x09
     762:	92 87       	std	Z+10, r25	; 0x0a
     764:	a3 87       	std	Z+11, r26	; 0x0b
     766:	b4 87       	std	Z+12, r27	; 0x0c
     768:	89 85       	ldd	r24, Y+9	; 0x09
     76a:	9a 85       	ldd	r25, Y+10	; 0x0a
     76c:	ab 85       	ldd	r26, Y+11	; 0x0b
     76e:	bc 85       	ldd	r27, Y+12	; 0x0c
     770:	85 87       	std	Z+13, r24	; 0x0d
     772:	96 87       	std	Z+14, r25	; 0x0e
     774:	a7 87       	std	Z+15, r26	; 0x0f
     776:	b0 8b       	std	Z+16, r27	; 0x10
     778:	8d 85       	ldd	r24, Y+13	; 0x0d
     77a:	9e 85       	ldd	r25, Y+14	; 0x0e
     77c:	af 85       	ldd	r26, Y+15	; 0x0f
     77e:	b8 89       	ldd	r27, Y+16	; 0x10
     780:	81 8b       	std	Z+17, r24	; 0x11
     782:	92 8b       	std	Z+18, r25	; 0x12
     784:	a3 8b       	std	Z+19, r26	; 0x13
     786:	b4 8b       	std	Z+20, r27	; 0x14
     788:	15 8a       	std	Z+21, r1	; 0x15
     78a:	16 8a       	std	Z+22, r1	; 0x16
     78c:	17 8a       	std	Z+23, r1	; 0x17
     78e:	10 8e       	std	Z+24, r1	; 0x18
     790:	11 8e       	std	Z+25, r1	; 0x19
     792:	12 8e       	std	Z+26, r1	; 0x1a
     794:	13 8e       	std	Z+27, r1	; 0x1b
     796:	14 8e       	std	Z+28, r1	; 0x1c
     798:	15 8e       	std	Z+29, r1	; 0x1d
     79a:	16 8e       	std	Z+30, r1	; 0x1e
     79c:	17 8e       	std	Z+31, r1	; 0x1f
     79e:	10 a2       	std	Z+32, r1	; 0x20
     7a0:	11 a2       	std	Z+33, r1	; 0x21
     7a2:	12 a2       	std	Z+34, r1	; 0x22
     7a4:	13 a2       	std	Z+35, r1	; 0x23
     7a6:	14 a2       	std	Z+36, r1	; 0x24
     7a8:	60 96       	adiw	r28, 0x10	; 16
     7aa:	0f b6       	in	r0, 0x3f	; 63
     7ac:	f8 94       	cli
     7ae:	de bf       	out	0x3e, r29	; 62
     7b0:	0f be       	out	0x3f, r0	; 63
     7b2:	cd bf       	out	0x3d, r28	; 61
     7b4:	df 91       	pop	r29
     7b6:	cf 91       	pop	r28
     7b8:	1f 91       	pop	r17
     7ba:	0f 91       	pop	r16
     7bc:	ff 90       	pop	r15
     7be:	ef 90       	pop	r14
     7c0:	df 90       	pop	r13
     7c2:	cf 90       	pop	r12
     7c4:	bf 90       	pop	r11
     7c6:	af 90       	pop	r10
     7c8:	9f 90       	pop	r9
     7ca:	8f 90       	pop	r8
     7cc:	08 95       	ret

000007ce <_ZN13Interpolation13setCurrentPosEffff>:
     7ce:	4f 92       	push	r4
     7d0:	5f 92       	push	r5
     7d2:	6f 92       	push	r6
     7d4:	7f 92       	push	r7
     7d6:	8f 92       	push	r8
     7d8:	9f 92       	push	r9
     7da:	af 92       	push	r10
     7dc:	bf 92       	push	r11
     7de:	cf 92       	push	r12
     7e0:	df 92       	push	r13
     7e2:	ef 92       	push	r14
     7e4:	ff 92       	push	r15
     7e6:	0f 93       	push	r16
     7e8:	1f 93       	push	r17
     7ea:	cf 93       	push	r28
     7ec:	df 93       	push	r29
     7ee:	cd b7       	in	r28, 0x3d	; 61
     7f0:	de b7       	in	r29, 0x3e	; 62
     7f2:	60 97       	sbiw	r28, 0x10	; 16
     7f4:	0f b6       	in	r0, 0x3f	; 63
     7f6:	f8 94       	cli
     7f8:	de bf       	out	0x3e, r29	; 62
     7fa:	0f be       	out	0x3f, r0	; 63
     7fc:	cd bf       	out	0x3d, r28	; 61
     7fe:	fc 2d       	mov	r31, r12
     800:	e8 2d       	mov	r30, r8
     802:	84 2e       	mov	r8, r20
     804:	44 2e       	mov	r4, r20
     806:	55 2e       	mov	r5, r21
     808:	66 2e       	mov	r6, r22
     80a:	77 2e       	mov	r7, r23
     80c:	49 82       	std	Y+1, r4	; 0x01
     80e:	5a 82       	std	Y+2, r5	; 0x02
     810:	6b 82       	std	Y+3, r6	; 0x03
     812:	7c 82       	std	Y+4, r7	; 0x04
     814:	c0 2e       	mov	r12, r16
     816:	40 2f       	mov	r20, r16
     818:	51 2f       	mov	r21, r17
     81a:	62 2f       	mov	r22, r18
     81c:	73 2f       	mov	r23, r19
     81e:	4d 83       	std	Y+5, r20	; 0x05
     820:	5e 83       	std	Y+6, r21	; 0x06
     822:	6f 83       	std	Y+7, r22	; 0x07
     824:	78 87       	std	Y+8, r23	; 0x08
     826:	0f 2f       	mov	r16, r31
     828:	4f 2f       	mov	r20, r31
     82a:	5d 2d       	mov	r21, r13
     82c:	6e 2d       	mov	r22, r14
     82e:	7f 2d       	mov	r23, r15
     830:	49 87       	std	Y+9, r20	; 0x09
     832:	5a 87       	std	Y+10, r21	; 0x0a
     834:	6b 87       	std	Y+11, r22	; 0x0b
     836:	7c 87       	std	Y+12, r23	; 0x0c
     838:	4e 2f       	mov	r20, r30
     83a:	4e 2e       	mov	r4, r30
     83c:	59 2c       	mov	r5, r9
     83e:	6a 2c       	mov	r6, r10
     840:	7b 2c       	mov	r7, r11
     842:	4d 86       	std	Y+13, r4	; 0x0d
     844:	5e 86       	std	Y+14, r5	; 0x0e
     846:	6f 86       	std	Y+15, r6	; 0x0f
     848:	78 8a       	std	Y+16, r7	; 0x10
     84a:	9a 80       	ldd	r9, Y+2	; 0x02
     84c:	ab 80       	ldd	r10, Y+3	; 0x03
     84e:	bc 80       	ldd	r11, Y+4	; 0x04
     850:	de 80       	ldd	r13, Y+6	; 0x06
     852:	ef 80       	ldd	r14, Y+7	; 0x07
     854:	f8 84       	ldd	r15, Y+8	; 0x08
     856:	1a 85       	ldd	r17, Y+10	; 0x0a
     858:	2b 85       	ldd	r18, Y+11	; 0x0b
     85a:	3c 85       	ldd	r19, Y+12	; 0x0c
     85c:	5e 85       	ldd	r21, Y+14	; 0x0e
     85e:	6f 85       	ldd	r22, Y+15	; 0x0f
     860:	78 89       	ldd	r23, Y+16	; 0x10
     862:	0e 94 7f 03 	call	0x6fe	; 0x6fe <_ZN13Interpolation13setCurrentPosE5Point>
     866:	60 96       	adiw	r28, 0x10	; 16
     868:	0f b6       	in	r0, 0x3f	; 63
     86a:	f8 94       	cli
     86c:	de bf       	out	0x3e, r29	; 62
     86e:	0f be       	out	0x3f, r0	; 63
     870:	cd bf       	out	0x3d, r28	; 61
     872:	df 91       	pop	r29
     874:	cf 91       	pop	r28
     876:	1f 91       	pop	r17
     878:	0f 91       	pop	r16
     87a:	ff 90       	pop	r15
     87c:	ef 90       	pop	r14
     87e:	df 90       	pop	r13
     880:	cf 90       	pop	r12
     882:	bf 90       	pop	r11
     884:	af 90       	pop	r10
     886:	9f 90       	pop	r9
     888:	8f 90       	pop	r8
     88a:	7f 90       	pop	r7
     88c:	6f 90       	pop	r6
     88e:	5f 90       	pop	r5
     890:	4f 90       	pop	r4
     892:	08 95       	ret

00000894 <_ZN13Interpolation16setInterpolationE5PointS0_f>:
     894:	2f 92       	push	r2
     896:	3f 92       	push	r3
     898:	4f 92       	push	r4
     89a:	5f 92       	push	r5
     89c:	6f 92       	push	r6
     89e:	7f 92       	push	r7
     8a0:	8f 92       	push	r8
     8a2:	9f 92       	push	r9
     8a4:	af 92       	push	r10
     8a6:	bf 92       	push	r11
     8a8:	cf 92       	push	r12
     8aa:	df 92       	push	r13
     8ac:	ef 92       	push	r14
     8ae:	ff 92       	push	r15
     8b0:	0f 93       	push	r16
     8b2:	1f 93       	push	r17
     8b4:	cf 93       	push	r28
     8b6:	df 93       	push	r29
     8b8:	cd b7       	in	r28, 0x3d	; 61
     8ba:	de b7       	in	r29, 0x3e	; 62
     8bc:	e4 97       	sbiw	r28, 0x34	; 52
     8be:	0f b6       	in	r0, 0x3f	; 63
     8c0:	f8 94       	cli
     8c2:	de bf       	out	0x3e, r29	; 62
     8c4:	0f be       	out	0x3f, r0	; 63
     8c6:	cd bf       	out	0x3d, r28	; 61
     8c8:	1c 01       	movw	r2, r24
     8ca:	89 82       	std	Y+1, r8	; 0x01
     8cc:	9a 82       	std	Y+2, r9	; 0x02
     8ce:	ab 82       	std	Y+3, r10	; 0x03
     8d0:	bc 82       	std	Y+4, r11	; 0x04
     8d2:	cd 82       	std	Y+5, r12	; 0x05
     8d4:	de 82       	std	Y+6, r13	; 0x06
     8d6:	ef 82       	std	Y+7, r14	; 0x07
     8d8:	f8 86       	std	Y+8, r15	; 0x08
     8da:	09 87       	std	Y+9, r16	; 0x09
     8dc:	1a 87       	std	Y+10, r17	; 0x0a
     8de:	2b 87       	std	Y+11, r18	; 0x0b
     8e0:	3c 87       	std	Y+12, r19	; 0x0c
     8e2:	4d 87       	std	Y+13, r20	; 0x0d
     8e4:	5e 87       	std	Y+14, r21	; 0x0e
     8e6:	6f 87       	std	Y+15, r22	; 0x0f
     8e8:	78 8b       	std	Y+16, r23	; 0x10
     8ea:	89 81       	ldd	r24, Y+1	; 0x01
     8ec:	9a 81       	ldd	r25, Y+2	; 0x02
     8ee:	ab 81       	ldd	r26, Y+3	; 0x03
     8f0:	bc 81       	ldd	r27, Y+4	; 0x04
     8f2:	89 a3       	std	Y+33, r24	; 0x21
     8f4:	9a a3       	std	Y+34, r25	; 0x22
     8f6:	ab a3       	std	Y+35, r26	; 0x23
     8f8:	bc a3       	std	Y+36, r27	; 0x24
     8fa:	4d 80       	ldd	r4, Y+5	; 0x05
     8fc:	5e 80       	ldd	r5, Y+6	; 0x06
     8fe:	6f 80       	ldd	r6, Y+7	; 0x07
     900:	78 84       	ldd	r7, Y+8	; 0x08
     902:	89 84       	ldd	r8, Y+9	; 0x09
     904:	9a 84       	ldd	r9, Y+10	; 0x0a
     906:	ab 84       	ldd	r10, Y+11	; 0x0b
     908:	bc 84       	ldd	r11, Y+12	; 0x0c
     90a:	cd 84       	ldd	r12, Y+13	; 0x0d
     90c:	de 84       	ldd	r13, Y+14	; 0x0e
     90e:	ef 84       	ldd	r14, Y+15	; 0x0f
     910:	f8 88       	ldd	r15, Y+16	; 0x10
     912:	9c 01       	movw	r18, r24
     914:	ad 01       	movw	r20, r26
     916:	2d 96       	adiw	r28, 0x0d	; 13
     918:	6c ad       	ldd	r22, Y+60	; 0x3c
     91a:	7d ad       	ldd	r23, Y+61	; 0x3d
     91c:	8e ad       	ldd	r24, Y+62	; 0x3e
     91e:	9f ad       	ldd	r25, Y+63	; 0x3f
     920:	2d 97       	sbiw	r28, 0x0d	; 13
     922:	0e 94 f0 0c 	call	0x19e0	; 0x19e0 <__subsf3>
     926:	6d 8b       	std	Y+21, r22	; 0x15
     928:	7e 8b       	std	Y+22, r23	; 0x16
     92a:	8f 8b       	std	Y+23, r24	; 0x17
     92c:	98 8f       	std	Y+24, r25	; 0x18
     92e:	a3 01       	movw	r20, r6
     930:	92 01       	movw	r18, r4
     932:	61 96       	adiw	r28, 0x11	; 17
     934:	6c ad       	ldd	r22, Y+60	; 0x3c
     936:	7d ad       	ldd	r23, Y+61	; 0x3d
     938:	8e ad       	ldd	r24, Y+62	; 0x3e
     93a:	9f ad       	ldd	r25, Y+63	; 0x3f
     93c:	61 97       	sbiw	r28, 0x11	; 17
     93e:	0e 94 f0 0c 	call	0x19e0	; 0x19e0 <__subsf3>
     942:	69 8f       	std	Y+25, r22	; 0x19
     944:	7a 8f       	std	Y+26, r23	; 0x1a
     946:	8b 8f       	std	Y+27, r24	; 0x1b
     948:	9c 8f       	std	Y+28, r25	; 0x1c
     94a:	a5 01       	movw	r20, r10
     94c:	94 01       	movw	r18, r8
     94e:	65 96       	adiw	r28, 0x15	; 21
     950:	6c ad       	ldd	r22, Y+60	; 0x3c
     952:	7d ad       	ldd	r23, Y+61	; 0x3d
     954:	8e ad       	ldd	r24, Y+62	; 0x3e
     956:	9f ad       	ldd	r25, Y+63	; 0x3f
     958:	65 97       	sbiw	r28, 0x15	; 21
     95a:	0e 94 f0 0c 	call	0x19e0	; 0x19e0 <__subsf3>
     95e:	6d 8f       	std	Y+29, r22	; 0x1d
     960:	7e 8f       	std	Y+30, r23	; 0x1e
     962:	8f 8f       	std	Y+31, r24	; 0x1f
     964:	98 a3       	std	Y+32, r25	; 0x20
     966:	a7 01       	movw	r20, r14
     968:	96 01       	movw	r18, r12
     96a:	69 96       	adiw	r28, 0x19	; 25
     96c:	6c ad       	ldd	r22, Y+60	; 0x3c
     96e:	7d ad       	ldd	r23, Y+61	; 0x3d
     970:	8e ad       	ldd	r24, Y+62	; 0x3e
     972:	9f ad       	ldd	r25, Y+63	; 0x3f
     974:	69 97       	sbiw	r28, 0x19	; 25
     976:	0e 94 f0 0c 	call	0x19e0	; 0x19e0 <__subsf3>
     97a:	6d a7       	std	Y+45, r22	; 0x2d
     97c:	7e a7       	std	Y+46, r23	; 0x2e
     97e:	8f a7       	std	Y+47, r24	; 0x2f
     980:	98 ab       	std	Y+48, r25	; 0x30
     982:	2d 89       	ldd	r18, Y+21	; 0x15
     984:	3e 89       	ldd	r19, Y+22	; 0x16
     986:	4f 89       	ldd	r20, Y+23	; 0x17
     988:	58 8d       	ldd	r21, Y+24	; 0x18
     98a:	ca 01       	movw	r24, r20
     98c:	b9 01       	movw	r22, r18
     98e:	0e 94 7b 0f 	call	0x1ef6	; 0x1ef6 <__mulsf3>
     992:	69 8b       	std	Y+17, r22	; 0x11
     994:	7a 8b       	std	Y+18, r23	; 0x12
     996:	8b 8b       	std	Y+19, r24	; 0x13
     998:	9c 8b       	std	Y+20, r25	; 0x14
     99a:	29 8d       	ldd	r18, Y+25	; 0x19
     99c:	3a 8d       	ldd	r19, Y+26	; 0x1a
     99e:	4b 8d       	ldd	r20, Y+27	; 0x1b
     9a0:	5c 8d       	ldd	r21, Y+28	; 0x1c
     9a2:	ca 01       	movw	r24, r20
     9a4:	b9 01       	movw	r22, r18
     9a6:	0e 94 7b 0f 	call	0x1ef6	; 0x1ef6 <__mulsf3>
     9aa:	6d a3       	std	Y+37, r22	; 0x25
     9ac:	7e a3       	std	Y+38, r23	; 0x26
     9ae:	8f a3       	std	Y+39, r24	; 0x27
     9b0:	98 a7       	std	Y+40, r25	; 0x28
     9b2:	9b 01       	movw	r18, r22
     9b4:	ac 01       	movw	r20, r24
     9b6:	69 89       	ldd	r22, Y+17	; 0x11
     9b8:	7a 89       	ldd	r23, Y+18	; 0x12
     9ba:	8b 89       	ldd	r24, Y+19	; 0x13
     9bc:	9c 89       	ldd	r25, Y+20	; 0x14
     9be:	0e 94 f1 0c 	call	0x19e2	; 0x19e2 <__addsf3>
     9c2:	69 ab       	std	Y+49, r22	; 0x31
     9c4:	7a ab       	std	Y+50, r23	; 0x32
     9c6:	8b ab       	std	Y+51, r24	; 0x33
     9c8:	9c ab       	std	Y+52, r25	; 0x34
     9ca:	2d 8d       	ldd	r18, Y+29	; 0x1d
     9cc:	3e 8d       	ldd	r19, Y+30	; 0x1e
     9ce:	4f 8d       	ldd	r20, Y+31	; 0x1f
     9d0:	58 a1       	ldd	r21, Y+32	; 0x20
     9d2:	ca 01       	movw	r24, r20
     9d4:	b9 01       	movw	r22, r18
     9d6:	0e 94 7b 0f 	call	0x1ef6	; 0x1ef6 <__mulsf3>
     9da:	69 a7       	std	Y+41, r22	; 0x29
     9dc:	7a a7       	std	Y+42, r23	; 0x2a
     9de:	8b a7       	std	Y+43, r24	; 0x2b
     9e0:	9c a7       	std	Y+44, r25	; 0x2c
     9e2:	2d a1       	ldd	r18, Y+37	; 0x25
     9e4:	3e a1       	ldd	r19, Y+38	; 0x26
     9e6:	4f a1       	ldd	r20, Y+39	; 0x27
     9e8:	58 a5       	ldd	r21, Y+40	; 0x28
     9ea:	69 89       	ldd	r22, Y+17	; 0x11
     9ec:	7a 89       	ldd	r23, Y+18	; 0x12
     9ee:	8b 89       	ldd	r24, Y+19	; 0x13
     9f0:	9c 89       	ldd	r25, Y+20	; 0x14
     9f2:	0e 94 f1 0c 	call	0x19e2	; 0x19e2 <__addsf3>
     9f6:	69 8b       	std	Y+17, r22	; 0x11
     9f8:	7a 8b       	std	Y+18, r23	; 0x12
     9fa:	8b 8b       	std	Y+19, r24	; 0x13
     9fc:	9c 8b       	std	Y+20, r25	; 0x14
     9fe:	29 a5       	ldd	r18, Y+41	; 0x29
     a00:	3a a5       	ldd	r19, Y+42	; 0x2a
     a02:	4b a5       	ldd	r20, Y+43	; 0x2b
     a04:	5c a5       	ldd	r21, Y+44	; 0x2c
     a06:	69 89       	ldd	r22, Y+17	; 0x11
     a08:	7a 89       	ldd	r23, Y+18	; 0x12
     a0a:	8b 89       	ldd	r24, Y+19	; 0x13
     a0c:	9c 89       	ldd	r25, Y+20	; 0x14
     a0e:	0e 94 f1 0c 	call	0x19e2	; 0x19e2 <__addsf3>
     a12:	0e 94 f6 0f 	call	0x1fec	; 0x1fec <sqrt>
     a16:	69 8b       	std	Y+17, r22	; 0x11
     a18:	7a 8b       	std	Y+18, r23	; 0x12
     a1a:	8b 8b       	std	Y+19, r24	; 0x13
     a1c:	9c 8b       	std	Y+20, r25	; 0x14
     a1e:	20 e0       	ldi	r18, 0x00	; 0
     a20:	30 e0       	ldi	r19, 0x00	; 0
     a22:	40 e8       	ldi	r20, 0x80	; 128
     a24:	5f e3       	ldi	r21, 0x3F	; 63
     a26:	6d 96       	adiw	r28, 0x1d	; 29
     a28:	6c ad       	ldd	r22, Y+60	; 0x3c
     a2a:	7d ad       	ldd	r23, Y+61	; 0x3d
     a2c:	8e ad       	ldd	r24, Y+62	; 0x3e
     a2e:	9f ad       	ldd	r25, Y+63	; 0x3f
     a30:	6d 97       	sbiw	r28, 0x1d	; 29
     a32:	0e 94 78 0d 	call	0x1af0	; 0x1af0 <__cmpsf2>
     a36:	88 23       	and	r24, r24
     a38:	64 f0       	brlt	.+24     	; 0xa52 <__stack+0x153>
     a3a:	6d 96       	adiw	r28, 0x1d	; 29
     a3c:	8c ad       	ldd	r24, Y+60	; 0x3c
     a3e:	9d ad       	ldd	r25, Y+61	; 0x3d
     a40:	ae ad       	ldd	r26, Y+62	; 0x3e
     a42:	bf ad       	ldd	r27, Y+63	; 0x3f
     a44:	6d 97       	sbiw	r28, 0x1d	; 29
     a46:	f1 01       	movw	r30, r2
     a48:	85 ab       	std	Z+53, r24	; 0x35
     a4a:	96 ab       	std	Z+54, r25	; 0x36
     a4c:	a7 ab       	std	Z+55, r26	; 0x37
     a4e:	b0 af       	std	Z+56, r27	; 0x38
     a50:	13 c0       	rjmp	.+38     	; 0xa78 <__stack+0x179>
     a52:	69 89       	ldd	r22, Y+17	; 0x11
     a54:	7a 89       	ldd	r23, Y+18	; 0x12
     a56:	8b 89       	ldd	r24, Y+19	; 0x13
     a58:	9c 89       	ldd	r25, Y+20	; 0x14
     a5a:	0e 94 f6 0f 	call	0x1fec	; 0x1fec <sqrt>
     a5e:	20 e0       	ldi	r18, 0x00	; 0
     a60:	30 e0       	ldi	r19, 0x00	; 0
     a62:	40 e2       	ldi	r20, 0x20	; 32
     a64:	51 e4       	ldi	r21, 0x41	; 65
     a66:	0e 94 7b 0f 	call	0x1ef6	; 0x1ef6 <__mulsf3>
     a6a:	d1 01       	movw	r26, r2
     a6c:	d5 96       	adiw	r26, 0x35	; 53
     a6e:	6d 93       	st	X+, r22
     a70:	7d 93       	st	X+, r23
     a72:	8d 93       	st	X+, r24
     a74:	9c 93       	st	X, r25
     a76:	d8 97       	sbiw	r26, 0x38	; 56
     a78:	20 e0       	ldi	r18, 0x00	; 0
     a7a:	30 e0       	ldi	r19, 0x00	; 0
     a7c:	40 e8       	ldi	r20, 0x80	; 128
     a7e:	5f e3       	ldi	r21, 0x3F	; 63
     a80:	f1 01       	movw	r30, r2
     a82:	65 a9       	ldd	r22, Z+53	; 0x35
     a84:	76 a9       	ldd	r23, Z+54	; 0x36
     a86:	87 a9       	ldd	r24, Z+55	; 0x37
     a88:	90 ad       	ldd	r25, Z+56	; 0x38
     a8a:	0e 94 78 0d 	call	0x1af0	; 0x1af0 <__cmpsf2>
     a8e:	88 23       	and	r24, r24
     a90:	4c f4       	brge	.+18     	; 0xaa4 <__stack+0x1a5>
     a92:	80 e0       	ldi	r24, 0x00	; 0
     a94:	90 e0       	ldi	r25, 0x00	; 0
     a96:	a0 ea       	ldi	r26, 0xA0	; 160
     a98:	b0 e4       	ldi	r27, 0x40	; 64
     a9a:	f1 01       	movw	r30, r2
     a9c:	85 ab       	std	Z+53, r24	; 0x35
     a9e:	96 ab       	std	Z+54, r25	; 0x36
     aa0:	a7 ab       	std	Z+55, r26	; 0x37
     aa2:	b0 af       	std	Z+56, r27	; 0x38
     aa4:	29 89       	ldd	r18, Y+17	; 0x11
     aa6:	3a 89       	ldd	r19, Y+18	; 0x12
     aa8:	4b 89       	ldd	r20, Y+19	; 0x13
     aaa:	5c 89       	ldd	r21, Y+20	; 0x14
     aac:	d1 01       	movw	r26, r2
     aae:	d5 96       	adiw	r26, 0x35	; 53
     ab0:	6d 91       	ld	r22, X+
     ab2:	7d 91       	ld	r23, X+
     ab4:	8d 91       	ld	r24, X+
     ab6:	9c 91       	ld	r25, X
     ab8:	d8 97       	sbiw	r26, 0x38	; 56
     aba:	0e 94 82 0d 	call	0x1b04	; 0x1b04 <__divsf3>
     abe:	f1 01       	movw	r30, r2
     ac0:	61 af       	std	Z+57, r22	; 0x39
     ac2:	72 af       	std	Z+58, r23	; 0x3a
     ac4:	83 af       	std	Z+59, r24	; 0x3b
     ac6:	94 af       	std	Z+60, r25	; 0x3c
     ac8:	89 a1       	ldd	r24, Y+33	; 0x21
     aca:	9a a1       	ldd	r25, Y+34	; 0x22
     acc:	ab a1       	ldd	r26, Y+35	; 0x23
     ace:	bc a1       	ldd	r27, Y+36	; 0x24
     ad0:	85 83       	std	Z+5, r24	; 0x05
     ad2:	96 83       	std	Z+6, r25	; 0x06
     ad4:	a7 83       	std	Z+7, r26	; 0x07
     ad6:	b0 87       	std	Z+8, r27	; 0x08
     ad8:	41 86       	std	Z+9, r4	; 0x09
     ada:	52 86       	std	Z+10, r5	; 0x0a
     adc:	63 86       	std	Z+11, r6	; 0x0b
     ade:	74 86       	std	Z+12, r7	; 0x0c
     ae0:	85 86       	std	Z+13, r8	; 0x0d
     ae2:	96 86       	std	Z+14, r9	; 0x0e
     ae4:	a7 86       	std	Z+15, r10	; 0x0f
     ae6:	b0 8a       	std	Z+16, r11	; 0x10
     ae8:	c1 8a       	std	Z+17, r12	; 0x11
     aea:	d2 8a       	std	Z+18, r13	; 0x12
     aec:	e3 8a       	std	Z+19, r14	; 0x13
     aee:	f4 8a       	std	Z+20, r15	; 0x14
     af0:	8d 89       	ldd	r24, Y+21	; 0x15
     af2:	9e 89       	ldd	r25, Y+22	; 0x16
     af4:	af 89       	ldd	r26, Y+23	; 0x17
     af6:	b8 8d       	ldd	r27, Y+24	; 0x18
     af8:	85 8b       	std	Z+21, r24	; 0x15
     afa:	96 8b       	std	Z+22, r25	; 0x16
     afc:	a7 8b       	std	Z+23, r26	; 0x17
     afe:	b0 8f       	std	Z+24, r27	; 0x18
     b00:	89 8d       	ldd	r24, Y+25	; 0x19
     b02:	9a 8d       	ldd	r25, Y+26	; 0x1a
     b04:	ab 8d       	ldd	r26, Y+27	; 0x1b
     b06:	bc 8d       	ldd	r27, Y+28	; 0x1c
     b08:	81 8f       	std	Z+25, r24	; 0x19
     b0a:	92 8f       	std	Z+26, r25	; 0x1a
     b0c:	a3 8f       	std	Z+27, r26	; 0x1b
     b0e:	b4 8f       	std	Z+28, r27	; 0x1c
     b10:	8d 8d       	ldd	r24, Y+29	; 0x1d
     b12:	9e 8d       	ldd	r25, Y+30	; 0x1e
     b14:	af 8d       	ldd	r26, Y+31	; 0x1f
     b16:	b8 a1       	ldd	r27, Y+32	; 0x20
     b18:	85 8f       	std	Z+29, r24	; 0x1d
     b1a:	96 8f       	std	Z+30, r25	; 0x1e
     b1c:	a7 8f       	std	Z+31, r26	; 0x1f
     b1e:	b0 a3       	std	Z+32, r27	; 0x20
     b20:	8d a5       	ldd	r24, Y+45	; 0x2d
     b22:	9e a5       	ldd	r25, Y+46	; 0x2e
     b24:	af a5       	ldd	r26, Y+47	; 0x2f
     b26:	b8 a9       	ldd	r27, Y+48	; 0x30
     b28:	81 a3       	std	Z+33, r24	; 0x21
     b2a:	92 a3       	std	Z+34, r25	; 0x22
     b2c:	a3 a3       	std	Z+35, r26	; 0x23
     b2e:	b4 a3       	std	Z+36, r27	; 0x24
     b30:	10 82       	st	Z, r1
     b32:	0e 94 1f 08 	call	0x103e	; 0x103e <_Z5Microv>
     b36:	d1 01       	movw	r26, r2
     b38:	11 96       	adiw	r26, 0x01	; 1
     b3a:	6d 93       	st	X+, r22
     b3c:	7d 93       	st	X+, r23
     b3e:	8d 93       	st	X+, r24
     b40:	9c 93       	st	X, r25
     b42:	14 97       	sbiw	r26, 0x04	; 4
     b44:	e4 96       	adiw	r28, 0x34	; 52
     b46:	0f b6       	in	r0, 0x3f	; 63
     b48:	f8 94       	cli
     b4a:	de bf       	out	0x3e, r29	; 62
     b4c:	0f be       	out	0x3f, r0	; 63
     b4e:	cd bf       	out	0x3d, r28	; 61
     b50:	df 91       	pop	r29
     b52:	cf 91       	pop	r28
     b54:	1f 91       	pop	r17
     b56:	0f 91       	pop	r16
     b58:	ff 90       	pop	r15
     b5a:	ef 90       	pop	r14
     b5c:	df 90       	pop	r13
     b5e:	cf 90       	pop	r12
     b60:	bf 90       	pop	r11
     b62:	af 90       	pop	r10
     b64:	9f 90       	pop	r9
     b66:	8f 90       	pop	r8
     b68:	7f 90       	pop	r7
     b6a:	6f 90       	pop	r6
     b6c:	5f 90       	pop	r5
     b6e:	4f 90       	pop	r4
     b70:	3f 90       	pop	r3
     b72:	2f 90       	pop	r2
     b74:	08 95       	ret

00000b76 <_ZN13Interpolation16setInterpolationE5Pointf>:
     b76:	6f 92       	push	r6
     b78:	7f 92       	push	r7
     b7a:	8f 92       	push	r8
     b7c:	9f 92       	push	r9
     b7e:	af 92       	push	r10
     b80:	bf 92       	push	r11
     b82:	cf 92       	push	r12
     b84:	df 92       	push	r13
     b86:	ef 92       	push	r14
     b88:	ff 92       	push	r15
     b8a:	0f 93       	push	r16
     b8c:	1f 93       	push	r17
     b8e:	cf 93       	push	r28
     b90:	df 93       	push	r29
     b92:	cd b7       	in	r28, 0x3d	; 61
     b94:	de b7       	in	r29, 0x3e	; 62
     b96:	a0 97       	sbiw	r28, 0x20	; 32
     b98:	0f b6       	in	r0, 0x3f	; 63
     b9a:	f8 94       	cli
     b9c:	de bf       	out	0x3e, r29	; 62
     b9e:	0f be       	out	0x3f, r0	; 63
     ba0:	cd bf       	out	0x3d, r28	; 61
     ba2:	3c 01       	movw	r6, r24
     ba4:	89 8a       	std	Y+17, r8	; 0x11
     ba6:	9a 8a       	std	Y+18, r9	; 0x12
     ba8:	ab 8a       	std	Y+19, r10	; 0x13
     baa:	bc 8a       	std	Y+20, r11	; 0x14
     bac:	cd 8a       	std	Y+21, r12	; 0x15
     bae:	de 8a       	std	Y+22, r13	; 0x16
     bb0:	ef 8a       	std	Y+23, r14	; 0x17
     bb2:	f8 8e       	std	Y+24, r15	; 0x18
     bb4:	09 8f       	std	Y+25, r16	; 0x19
     bb6:	1a 8f       	std	Y+26, r17	; 0x1a
     bb8:	2b 8f       	std	Y+27, r18	; 0x1b
     bba:	3c 8f       	std	Y+28, r19	; 0x1c
     bbc:	4d 8f       	std	Y+29, r20	; 0x1d
     bbe:	5e 8f       	std	Y+30, r21	; 0x1e
     bc0:	6f 8f       	std	Y+31, r22	; 0x1f
     bc2:	78 a3       	std	Y+32, r23	; 0x20
     bc4:	19 a9       	ldd	r17, Y+49	; 0x31
     bc6:	0a a9       	ldd	r16, Y+50	; 0x32
     bc8:	fb a8       	ldd	r15, Y+51	; 0x33
     bca:	ec a8       	ldd	r14, Y+52	; 0x34
     bcc:	fc 01       	movw	r30, r24
     bce:	25 89       	ldd	r18, Z+21	; 0x15
     bd0:	36 89       	ldd	r19, Z+22	; 0x16
     bd2:	47 89       	ldd	r20, Z+23	; 0x17
     bd4:	50 8d       	ldd	r21, Z+24	; 0x18
     bd6:	65 81       	ldd	r22, Z+5	; 0x05
     bd8:	76 81       	ldd	r23, Z+6	; 0x06
     bda:	87 81       	ldd	r24, Z+7	; 0x07
     bdc:	90 85       	ldd	r25, Z+8	; 0x08
     bde:	0e 94 f1 0c 	call	0x19e2	; 0x19e2 <__addsf3>
     be2:	69 83       	std	Y+1, r22	; 0x01
     be4:	7a 83       	std	Y+2, r23	; 0x02
     be6:	8b 83       	std	Y+3, r24	; 0x03
     be8:	9c 83       	std	Y+4, r25	; 0x04
     bea:	f3 01       	movw	r30, r6
     bec:	21 8d       	ldd	r18, Z+25	; 0x19
     bee:	32 8d       	ldd	r19, Z+26	; 0x1a
     bf0:	43 8d       	ldd	r20, Z+27	; 0x1b
     bf2:	54 8d       	ldd	r21, Z+28	; 0x1c
     bf4:	61 85       	ldd	r22, Z+9	; 0x09
     bf6:	72 85       	ldd	r23, Z+10	; 0x0a
     bf8:	83 85       	ldd	r24, Z+11	; 0x0b
     bfa:	94 85       	ldd	r25, Z+12	; 0x0c
     bfc:	0e 94 f1 0c 	call	0x19e2	; 0x19e2 <__addsf3>
     c00:	6d 83       	std	Y+5, r22	; 0x05
     c02:	7e 83       	std	Y+6, r23	; 0x06
     c04:	8f 83       	std	Y+7, r24	; 0x07
     c06:	98 87       	std	Y+8, r25	; 0x08
     c08:	f3 01       	movw	r30, r6
     c0a:	25 8d       	ldd	r18, Z+29	; 0x1d
     c0c:	36 8d       	ldd	r19, Z+30	; 0x1e
     c0e:	47 8d       	ldd	r20, Z+31	; 0x1f
     c10:	50 a1       	ldd	r21, Z+32	; 0x20
     c12:	65 85       	ldd	r22, Z+13	; 0x0d
     c14:	76 85       	ldd	r23, Z+14	; 0x0e
     c16:	87 85       	ldd	r24, Z+15	; 0x0f
     c18:	90 89       	ldd	r25, Z+16	; 0x10
     c1a:	0e 94 f1 0c 	call	0x19e2	; 0x19e2 <__addsf3>
     c1e:	69 87       	std	Y+9, r22	; 0x09
     c20:	7a 87       	std	Y+10, r23	; 0x0a
     c22:	8b 87       	std	Y+11, r24	; 0x0b
     c24:	9c 87       	std	Y+12, r25	; 0x0c
     c26:	f3 01       	movw	r30, r6
     c28:	21 a1       	ldd	r18, Z+33	; 0x21
     c2a:	32 a1       	ldd	r19, Z+34	; 0x22
     c2c:	43 a1       	ldd	r20, Z+35	; 0x23
     c2e:	54 a1       	ldd	r21, Z+36	; 0x24
     c30:	61 89       	ldd	r22, Z+17	; 0x11
     c32:	72 89       	ldd	r23, Z+18	; 0x12
     c34:	83 89       	ldd	r24, Z+19	; 0x13
     c36:	94 89       	ldd	r25, Z+20	; 0x14
     c38:	0e 94 f1 0c 	call	0x19e2	; 0x19e2 <__addsf3>
     c3c:	6d 87       	std	Y+13, r22	; 0x0d
     c3e:	7e 87       	std	Y+14, r23	; 0x0e
     c40:	8f 87       	std	Y+15, r24	; 0x0f
     c42:	98 8b       	std	Y+16, r25	; 0x10
     c44:	ef 92       	push	r14
     c46:	ff 92       	push	r15
     c48:	0f 93       	push	r16
     c4a:	1f 93       	push	r17
     c4c:	8d b7       	in	r24, 0x3d	; 61
     c4e:	9e b7       	in	r25, 0x3e	; 62
     c50:	40 97       	sbiw	r24, 0x10	; 16
     c52:	0f b6       	in	r0, 0x3f	; 63
     c54:	f8 94       	cli
     c56:	9e bf       	out	0x3e, r25	; 62
     c58:	0f be       	out	0x3f, r0	; 63
     c5a:	8d bf       	out	0x3d, r24	; 61
     c5c:	ad b7       	in	r26, 0x3d	; 61
     c5e:	be b7       	in	r27, 0x3e	; 62
     c60:	11 96       	adiw	r26, 0x01	; 1
     c62:	80 e1       	ldi	r24, 0x10	; 16
     c64:	fe 01       	movw	r30, r28
     c66:	71 96       	adiw	r30, 0x11	; 17
     c68:	01 90       	ld	r0, Z+
     c6a:	0d 92       	st	X+, r0
     c6c:	8a 95       	dec	r24
     c6e:	e1 f7       	brne	.-8      	; 0xc68 <_ZN13Interpolation16setInterpolationE5Pointf+0xf2>
     c70:	89 80       	ldd	r8, Y+1	; 0x01
     c72:	9a 80       	ldd	r9, Y+2	; 0x02
     c74:	ab 80       	ldd	r10, Y+3	; 0x03
     c76:	bc 80       	ldd	r11, Y+4	; 0x04
     c78:	cd 80       	ldd	r12, Y+5	; 0x05
     c7a:	de 80       	ldd	r13, Y+6	; 0x06
     c7c:	ef 80       	ldd	r14, Y+7	; 0x07
     c7e:	f8 84       	ldd	r15, Y+8	; 0x08
     c80:	09 85       	ldd	r16, Y+9	; 0x09
     c82:	1a 85       	ldd	r17, Y+10	; 0x0a
     c84:	2b 85       	ldd	r18, Y+11	; 0x0b
     c86:	3c 85       	ldd	r19, Y+12	; 0x0c
     c88:	4d 85       	ldd	r20, Y+13	; 0x0d
     c8a:	5e 85       	ldd	r21, Y+14	; 0x0e
     c8c:	6f 85       	ldd	r22, Y+15	; 0x0f
     c8e:	78 89       	ldd	r23, Y+16	; 0x10
     c90:	c3 01       	movw	r24, r6
     c92:	0e 94 4a 04 	call	0x894	; 0x894 <_ZN13Interpolation16setInterpolationE5PointS0_f>
     c96:	0f b6       	in	r0, 0x3f	; 63
     c98:	f8 94       	cli
     c9a:	de bf       	out	0x3e, r29	; 62
     c9c:	0f be       	out	0x3f, r0	; 63
     c9e:	cd bf       	out	0x3d, r28	; 61
     ca0:	a0 96       	adiw	r28, 0x20	; 32
     ca2:	0f b6       	in	r0, 0x3f	; 63
     ca4:	f8 94       	cli
     ca6:	de bf       	out	0x3e, r29	; 62
     ca8:	0f be       	out	0x3f, r0	; 63
     caa:	cd bf       	out	0x3d, r28	; 61
     cac:	df 91       	pop	r29
     cae:	cf 91       	pop	r28
     cb0:	1f 91       	pop	r17
     cb2:	0f 91       	pop	r16
     cb4:	ff 90       	pop	r15
     cb6:	ef 90       	pop	r14
     cb8:	df 90       	pop	r13
     cba:	cf 90       	pop	r12
     cbc:	bf 90       	pop	r11
     cbe:	af 90       	pop	r10
     cc0:	9f 90       	pop	r9
     cc2:	8f 90       	pop	r8
     cc4:	7f 90       	pop	r7
     cc6:	6f 90       	pop	r6
     cc8:	08 95       	ret

00000cca <_ZN13Interpolation20updateActualPositionEv>:
	startTime_ = Micro();
	//SendString(UART0,"\n\rstartTime_: ");
	//SendInteger(UART0,startTime_/1000.0);
}

void Interpolation::updateActualPosition() {
     cca:	cf 92       	push	r12
     ccc:	df 92       	push	r13
     cce:	ef 92       	push	r14
     cd0:	ff 92       	push	r15
     cd2:	cf 93       	push	r28
     cd4:	df 93       	push	r29
  if (state_ != 0) { // Arm is not moving
     cd6:	fc 01       	movw	r30, r24
     cd8:	20 81       	ld	r18, Z
     cda:	21 11       	cpse	r18, r1
     cdc:	75 c0       	rjmp	.+234    	; 0xdc8 <_ZN13Interpolation20updateActualPositionEv+0xfe>
     cde:	ec 01       	movw	r28, r24
    return;
  }
  
  unsigned long microsek = Micro();  // Time now
     ce0:	0e 94 1f 08 	call	0x103e	; 0x103e <_Z5Microv>
    progress = 1.0; 
    state = 1;
  }*/
  //Cosin Approx.
  //float progress = -cos(t * tmul_ * M_PI) * 0.5 + 0.5;
  float progress = t * tmul_;
     ce4:	c9 80       	ldd	r12, Y+1	; 0x01
     ce6:	da 80       	ldd	r13, Y+2	; 0x02
     ce8:	eb 80       	ldd	r14, Y+3	; 0x03
     cea:	fc 80       	ldd	r15, Y+4	; 0x04
     cec:	6c 19       	sub	r22, r12
     cee:	7d 09       	sbc	r23, r13
     cf0:	8e 09       	sbc	r24, r14
     cf2:	9f 09       	sbc	r25, r15
     cf4:	0e 94 2a 0e 	call	0x1c54	; 0x1c54 <__floatunsisf>
     cf8:	20 e0       	ldi	r18, 0x00	; 0
     cfa:	34 e2       	ldi	r19, 0x24	; 36
     cfc:	44 e7       	ldi	r20, 0x74	; 116
     cfe:	59 e4       	ldi	r21, 0x49	; 73
     d00:	0e 94 82 0d 	call	0x1b04	; 0x1b04 <__divsf3>
     d04:	29 ad       	ldd	r18, Y+57	; 0x39
     d06:	3a ad       	ldd	r19, Y+58	; 0x3a
     d08:	4b ad       	ldd	r20, Y+59	; 0x3b
     d0a:	5c ad       	ldd	r21, Y+60	; 0x3c
     d0c:	0e 94 7b 0f 	call	0x1ef6	; 0x1ef6 <__mulsf3>
     d10:	6b 01       	movw	r12, r22
     d12:	7c 01       	movw	r14, r24
  //SendInteger(UART0,t*1000);
  //SendString(UART0,"\n\r");
  if ((t * tmul_) >= 1.0) {	// Move is done!
     d14:	20 e0       	ldi	r18, 0x00	; 0
     d16:	30 e0       	ldi	r19, 0x00	; 0
     d18:	40 e8       	ldi	r20, 0x80	; 128
     d1a:	5f e3       	ldi	r21, 0x3F	; 63
     d1c:	0e 94 76 0f 	call	0x1eec	; 0x1eec <__gesf2>
     d20:	88 23       	and	r24, r24
     d22:	54 f0       	brlt	.+20     	; 0xd38 <_ZN13Interpolation20updateActualPositionEv+0x6e>
    progress = 1.0; 
    state_ = 1;
     d24:	81 e0       	ldi	r24, 0x01	; 1
     d26:	88 83       	st	Y, r24
  //float progress = -cos(t * tmul_ * M_PI) * 0.5 + 0.5;
  float progress = t * tmul_;
  //SendInteger(UART0,t*1000);
  //SendString(UART0,"\n\r");
  if ((t * tmul_) >= 1.0) {	// Move is done!
    progress = 1.0; 
     d28:	0f 2e       	mov	r0, r31
     d2a:	c1 2c       	mov	r12, r1
     d2c:	d1 2c       	mov	r13, r1
     d2e:	f0 e8       	ldi	r31, 0x80	; 128
     d30:	ef 2e       	mov	r14, r31
     d32:	ff e3       	ldi	r31, 0x3F	; 63
     d34:	ff 2e       	mov	r15, r31
     d36:	f0 2d       	mov	r31, r0
    state_ = 1;
  }
  xPosmm_ = xStartmm_ + progress * xDelta_;
     d38:	2d 89       	ldd	r18, Y+21	; 0x15
     d3a:	3e 89       	ldd	r19, Y+22	; 0x16
     d3c:	4f 89       	ldd	r20, Y+23	; 0x17
     d3e:	58 8d       	ldd	r21, Y+24	; 0x18
     d40:	c7 01       	movw	r24, r14
     d42:	b6 01       	movw	r22, r12
     d44:	0e 94 7b 0f 	call	0x1ef6	; 0x1ef6 <__mulsf3>
     d48:	2d 81       	ldd	r18, Y+5	; 0x05
     d4a:	3e 81       	ldd	r19, Y+6	; 0x06
     d4c:	4f 81       	ldd	r20, Y+7	; 0x07
     d4e:	58 85       	ldd	r21, Y+8	; 0x08
     d50:	0e 94 f1 0c 	call	0x19e2	; 0x19e2 <__addsf3>
     d54:	6d a3       	std	Y+37, r22	; 0x25
     d56:	7e a3       	std	Y+38, r23	; 0x26
     d58:	8f a3       	std	Y+39, r24	; 0x27
     d5a:	98 a7       	std	Y+40, r25	; 0x28
  yPosmm_ = yStartmm_ + progress * yDelta_;
     d5c:	29 8d       	ldd	r18, Y+25	; 0x19
     d5e:	3a 8d       	ldd	r19, Y+26	; 0x1a
     d60:	4b 8d       	ldd	r20, Y+27	; 0x1b
     d62:	5c 8d       	ldd	r21, Y+28	; 0x1c
     d64:	c7 01       	movw	r24, r14
     d66:	b6 01       	movw	r22, r12
     d68:	0e 94 7b 0f 	call	0x1ef6	; 0x1ef6 <__mulsf3>
     d6c:	29 85       	ldd	r18, Y+9	; 0x09
     d6e:	3a 85       	ldd	r19, Y+10	; 0x0a
     d70:	4b 85       	ldd	r20, Y+11	; 0x0b
     d72:	5c 85       	ldd	r21, Y+12	; 0x0c
     d74:	0e 94 f1 0c 	call	0x19e2	; 0x19e2 <__addsf3>
     d78:	69 a7       	std	Y+41, r22	; 0x29
     d7a:	7a a7       	std	Y+42, r23	; 0x2a
     d7c:	8b a7       	std	Y+43, r24	; 0x2b
     d7e:	9c a7       	std	Y+44, r25	; 0x2c
  zPosmm_ = zStartmm_ + progress * zDelta_;
     d80:	2d 8d       	ldd	r18, Y+29	; 0x1d
     d82:	3e 8d       	ldd	r19, Y+30	; 0x1e
     d84:	4f 8d       	ldd	r20, Y+31	; 0x1f
     d86:	58 a1       	ldd	r21, Y+32	; 0x20
     d88:	c7 01       	movw	r24, r14
     d8a:	b6 01       	movw	r22, r12
     d8c:	0e 94 7b 0f 	call	0x1ef6	; 0x1ef6 <__mulsf3>
     d90:	2d 85       	ldd	r18, Y+13	; 0x0d
     d92:	3e 85       	ldd	r19, Y+14	; 0x0e
     d94:	4f 85       	ldd	r20, Y+15	; 0x0f
     d96:	58 89       	ldd	r21, Y+16	; 0x10
     d98:	0e 94 f1 0c 	call	0x19e2	; 0x19e2 <__addsf3>
     d9c:	6d a7       	std	Y+45, r22	; 0x2d
     d9e:	7e a7       	std	Y+46, r23	; 0x2e
     da0:	8f a7       	std	Y+47, r24	; 0x2f
     da2:	98 ab       	std	Y+48, r25	; 0x30
  ePosmm_ = eStartmm_ + progress * eDelta_;
     da4:	29 a1       	ldd	r18, Y+33	; 0x21
     da6:	3a a1       	ldd	r19, Y+34	; 0x22
     da8:	4b a1       	ldd	r20, Y+35	; 0x23
     daa:	5c a1       	ldd	r21, Y+36	; 0x24
     dac:	c7 01       	movw	r24, r14
     dae:	b6 01       	movw	r22, r12
     db0:	0e 94 7b 0f 	call	0x1ef6	; 0x1ef6 <__mulsf3>
     db4:	29 89       	ldd	r18, Y+17	; 0x11
     db6:	3a 89       	ldd	r19, Y+18	; 0x12
     db8:	4b 89       	ldd	r20, Y+19	; 0x13
     dba:	5c 89       	ldd	r21, Y+20	; 0x14
     dbc:	0e 94 f1 0c 	call	0x19e2	; 0x19e2 <__addsf3>
     dc0:	69 ab       	std	Y+49, r22	; 0x31
     dc2:	7a ab       	std	Y+50, r23	; 0x32
     dc4:	8b ab       	std	Y+51, r24	; 0x33
     dc6:	9c ab       	std	Y+52, r25	; 0x34
}
     dc8:	df 91       	pop	r29
     dca:	cf 91       	pop	r28
     dcc:	ff 90       	pop	r15
     dce:	ef 90       	pop	r14
     dd0:	df 90       	pop	r13
     dd2:	cf 90       	pop	r12
     dd4:	08 95       	ret

00000dd6 <_ZNK13Interpolation10isFinishedEv>:

bool Interpolation::isFinished() const{
     dd6:	fc 01       	movw	r30, r24
	return state_ !=0;
     dd8:	81 e0       	ldi	r24, 0x01	; 1
     dda:	90 81       	ld	r25, Z
     ddc:	91 11       	cpse	r25, r1
     dde:	01 c0       	rjmp	.+2      	; 0xde2 <_ZNK13Interpolation10isFinishedEv+0xc>
     de0:	80 e0       	ldi	r24, 0x00	; 0
}
     de2:	08 95       	ret

00000de4 <_ZNK13Interpolation9getXPosmmEv>:

float Interpolation::getXPosmm() const{
	return xPosmm_;	
     de4:	fc 01       	movw	r30, r24
     de6:	65 a1       	ldd	r22, Z+37	; 0x25
     de8:	76 a1       	ldd	r23, Z+38	; 0x26
     dea:	87 a1       	ldd	r24, Z+39	; 0x27
     dec:	90 a5       	ldd	r25, Z+40	; 0x28
}
     dee:	08 95       	ret

00000df0 <_ZNK13Interpolation9getYPosmmEv>:

float Interpolation::getYPosmm() const{
	return yPosmm_;	
     df0:	fc 01       	movw	r30, r24
     df2:	61 a5       	ldd	r22, Z+41	; 0x29
     df4:	72 a5       	ldd	r23, Z+42	; 0x2a
     df6:	83 a5       	ldd	r24, Z+43	; 0x2b
     df8:	94 a5       	ldd	r25, Z+44	; 0x2c
}
     dfa:	08 95       	ret

00000dfc <_ZNK13Interpolation9getZPosmmEv>:
float Interpolation::getZPosmm() const{
	return zPosmm_;
     dfc:	fc 01       	movw	r30, r24
     dfe:	65 a5       	ldd	r22, Z+45	; 0x2d
     e00:	76 a5       	ldd	r23, Z+46	; 0x2e
     e02:	87 a5       	ldd	r24, Z+47	; 0x2f
     e04:	90 a9       	ldd	r25, Z+48	; 0x30
}
     e06:	08 95       	ret

00000e08 <_ZN3pin4highEv>:
	pinno_ = pinno;
	low();
	state_ = false;
}
// Sets the pin high
void pin::high(){
     e08:	dc 01       	movw	r26, r24
	*port_ |= 1<<pinno_;
     e0a:	11 96       	adiw	r26, 0x01	; 1
     e0c:	ed 91       	ld	r30, X+
     e0e:	fc 91       	ld	r31, X
     e10:	12 97       	sbiw	r26, 0x02	; 2
     e12:	40 81       	ld	r20, Z
     e14:	21 e0       	ldi	r18, 0x01	; 1
     e16:	30 e0       	ldi	r19, 0x00	; 0
     e18:	c9 01       	movw	r24, r18
     e1a:	13 96       	adiw	r26, 0x03	; 3
     e1c:	0c 90       	ld	r0, X
     e1e:	02 c0       	rjmp	.+4      	; 0xe24 <_ZN3pin4highEv+0x1c>
     e20:	88 0f       	add	r24, r24
     e22:	99 1f       	adc	r25, r25
     e24:	0a 94       	dec	r0
     e26:	e2 f7       	brpl	.-8      	; 0xe20 <_ZN3pin4highEv+0x18>
     e28:	84 2b       	or	r24, r20
     e2a:	80 83       	st	Z, r24
     e2c:	08 95       	ret

00000e2e <_ZN3pin3lowEv>:
}

// Sets the pin low
void pin::low(){
	*port_ &= ~(1<<pinno_);
     e2e:	dc 01       	movw	r26, r24
     e30:	11 96       	adiw	r26, 0x01	; 1
     e32:	ed 91       	ld	r30, X+
     e34:	fc 91       	ld	r31, X
     e36:	12 97       	sbiw	r26, 0x02	; 2
     e38:	40 81       	ld	r20, Z
     e3a:	21 e0       	ldi	r18, 0x01	; 1
     e3c:	30 e0       	ldi	r19, 0x00	; 0
     e3e:	b9 01       	movw	r22, r18
     e40:	13 96       	adiw	r26, 0x03	; 3
     e42:	0c 90       	ld	r0, X
     e44:	02 c0       	rjmp	.+4      	; 0xe4a <_ZN3pin3lowEv+0x1c>
     e46:	66 0f       	add	r22, r22
     e48:	77 1f       	adc	r23, r23
     e4a:	0a 94       	dec	r0
     e4c:	e2 f7       	brpl	.-8      	; 0xe46 <_ZN3pin3lowEv+0x18>
     e4e:	cb 01       	movw	r24, r22
     e50:	80 95       	com	r24
     e52:	84 23       	and	r24, r20
     e54:	80 83       	st	Z, r24
     e56:	08 95       	ret

00000e58 <_ZN3pinC1EPVhS1_hb>:
 * Created: 27/02/2020 11.48.29
 *  Author: jonas
 */ 
#include "d_pin.h"

pin::pin(volatile uint8_t* DDRadr, volatile uint8_t* port, uint8_t pinno, bool input){
     e58:	0f 93       	push	r16
     e5a:	cf 93       	push	r28
     e5c:	df 93       	push	r29
     e5e:	ec 01       	movw	r28, r24
	if (input==false)
     e60:	01 11       	cpse	r16, r1
     e62:	0d c0       	rjmp	.+26     	; 0xe7e <_ZN3pinC1EPVhS1_hb+0x26>
	{
		*DDRadr |= (1<<pinno);
     e64:	fb 01       	movw	r30, r22
     e66:	30 81       	ld	r19, Z
     e68:	81 e0       	ldi	r24, 0x01	; 1
     e6a:	90 e0       	ldi	r25, 0x00	; 0
     e6c:	02 2e       	mov	r0, r18
     e6e:	02 c0       	rjmp	.+4      	; 0xe74 <_ZN3pinC1EPVhS1_hb+0x1c>
     e70:	88 0f       	add	r24, r24
     e72:	99 1f       	adc	r25, r25
     e74:	0a 94       	dec	r0
     e76:	e2 f7       	brpl	.-8      	; 0xe70 <_ZN3pinC1EPVhS1_hb+0x18>
     e78:	83 2b       	or	r24, r19
     e7a:	80 83       	st	Z, r24
     e7c:	0d c0       	rjmp	.+26     	; 0xe98 <_ZN3pinC1EPVhS1_hb+0x40>
	}
	else
	{
		*DDRadr &= ~(1<<pinno);
     e7e:	fb 01       	movw	r30, r22
     e80:	30 81       	ld	r19, Z
     e82:	81 e0       	ldi	r24, 0x01	; 1
     e84:	90 e0       	ldi	r25, 0x00	; 0
     e86:	02 2e       	mov	r0, r18
     e88:	02 c0       	rjmp	.+4      	; 0xe8e <_ZN3pinC1EPVhS1_hb+0x36>
     e8a:	88 0f       	add	r24, r24
     e8c:	99 1f       	adc	r25, r25
     e8e:	0a 94       	dec	r0
     e90:	e2 f7       	brpl	.-8      	; 0xe8a <_ZN3pinC1EPVhS1_hb+0x32>
     e92:	80 95       	com	r24
     e94:	83 23       	and	r24, r19
     e96:	80 83       	st	Z, r24
	}
	
	port_  = port;
     e98:	5a 83       	std	Y+2, r21	; 0x02
     e9a:	49 83       	std	Y+1, r20	; 0x01
	pinno_ = pinno;
     e9c:	2b 83       	std	Y+3, r18	; 0x03
	low();
     e9e:	ce 01       	movw	r24, r28
     ea0:	0e 94 17 07 	call	0xe2e	; 0xe2e <_ZN3pin3lowEv>
	state_ = false;
     ea4:	18 82       	st	Y, r1
}
     ea6:	df 91       	pop	r29
     ea8:	cf 91       	pop	r28
     eaa:	0f 91       	pop	r16
     eac:	08 95       	ret

00000eae <_ZN12stepperMotorC1EP3pinS1_>:
	stepperStepTargetPosition_ = rad * radToStepFactor_;
}

void stepperMotor::stepRelativeRad(float rad) {
	stepRelative(rad * radToStepFactor_);
}
     eae:	fc 01       	movw	r30, r24
     eb0:	75 83       	std	Z+5, r23	; 0x05
     eb2:	64 83       	std	Z+4, r22	; 0x04
     eb4:	57 83       	std	Z+7, r21	; 0x07
     eb6:	46 83       	std	Z+6, r20	; 0x06
     eb8:	08 95       	ret

00000eba <_ZN12stepperMotor14setPositionRadEf>:
     eba:	cf 93       	push	r28
     ebc:	df 93       	push	r29
     ebe:	ec 01       	movw	r28, r24
     ec0:	cb 01       	movw	r24, r22
     ec2:	ba 01       	movw	r22, r20
     ec4:	28 85       	ldd	r18, Y+8	; 0x08
     ec6:	39 85       	ldd	r19, Y+9	; 0x09
     ec8:	4a 85       	ldd	r20, Y+10	; 0x0a
     eca:	5b 85       	ldd	r21, Y+11	; 0x0b
     ecc:	0e 94 7b 0f 	call	0x1ef6	; 0x1ef6 <__mulsf3>
     ed0:	0e 94 f4 0d 	call	0x1be8	; 0x1be8 <__fixsfsi>
     ed4:	7b 83       	std	Y+3, r23	; 0x03
     ed6:	6a 83       	std	Y+2, r22	; 0x02
     ed8:	79 83       	std	Y+1, r23	; 0x01
     eda:	68 83       	st	Y, r22
     edc:	df 91       	pop	r29
     ede:	cf 91       	pop	r28
     ee0:	08 95       	ret

00000ee2 <_ZN12stepperMotor17stepToPositionRadEf>:
     ee2:	cf 93       	push	r28
     ee4:	df 93       	push	r29
     ee6:	ec 01       	movw	r28, r24
     ee8:	cb 01       	movw	r24, r22
     eea:	ba 01       	movw	r22, r20
     eec:	28 85       	ldd	r18, Y+8	; 0x08
     eee:	39 85       	ldd	r19, Y+9	; 0x09
     ef0:	4a 85       	ldd	r20, Y+10	; 0x0a
     ef2:	5b 85       	ldd	r21, Y+11	; 0x0b
     ef4:	0e 94 7b 0f 	call	0x1ef6	; 0x1ef6 <__mulsf3>
     ef8:	0e 94 f4 0d 	call	0x1be8	; 0x1be8 <__fixsfsi>
     efc:	79 83       	std	Y+1, r23	; 0x01
     efe:	68 83       	st	Y, r22
     f00:	df 91       	pop	r29
     f02:	cf 91       	pop	r28
     f04:	08 95       	ret

00000f06 <_ZN12stepperMotor6updateEv>:

void stepperMotor::update() {
     f06:	cf 93       	push	r28
     f08:	df 93       	push	r29
     f0a:	ec 01       	movw	r28, r24
	while (stepperStepTargetPosition_ < stepperStepPosition_) {
     f0c:	28 81       	ld	r18, Y
     f0e:	39 81       	ldd	r19, Y+1	; 0x01
     f10:	8a 81       	ldd	r24, Y+2	; 0x02
     f12:	9b 81       	ldd	r25, Y+3	; 0x03
     f14:	28 17       	cp	r18, r24
     f16:	39 07       	cpc	r19, r25
     f18:	44 f0       	brlt	.+16     	; 0xf2a <_ZN12stepperMotor6updateEv+0x24>
		/*
		step(true);
		
		_delay_ms(5);*/
	}
	while (stepperStepTargetPosition_ > stepperStepPosition_) {
     f1a:	28 81       	ld	r18, Y
     f1c:	39 81       	ldd	r19, Y+1	; 0x01
     f1e:	8a 81       	ldd	r24, Y+2	; 0x02
     f20:	9b 81       	ldd	r25, Y+3	; 0x03
     f22:	82 17       	cp	r24, r18
     f24:	93 07       	cpc	r25, r19
     f26:	44 f1       	brlt	.+80     	; 0xf78 <_ZN12stepperMotor6updateEv+0x72>
     f28:	4d c0       	rjmp	.+154    	; 0xfc4 <_ZN12stepperMotor6updateEv+0xbe>
	stepRelative(rad * radToStepFactor_);
}

void stepperMotor::update() {
	while (stepperStepTargetPosition_ < stepperStepPosition_) {
		dirPinP_->high();
     f2a:	8e 81       	ldd	r24, Y+6	; 0x06
     f2c:	9f 81       	ldd	r25, Y+7	; 0x07
     f2e:	0e 94 04 07 	call	0xe08	; 0xe08 <_ZN3pin4highEv>
	#else
		//round up by default
		__ticks_dc = (uint32_t)(ceil(fabs(__tmp)));
	#endif

	__builtin_avr_delay_cycles(__ticks_dc);
     f32:	8a e1       	ldi	r24, 0x1A	; 26
     f34:	8a 95       	dec	r24
     f36:	f1 f7       	brne	.-4      	; 0xf34 <_ZN12stepperMotor6updateEv+0x2e>
     f38:	00 c0       	rjmp	.+0      	; 0xf3a <_ZN12stepperMotor6updateEv+0x34>
		_delay_us(5);
		stepPinP_->high();
     f3a:	8c 81       	ldd	r24, Y+4	; 0x04
     f3c:	9d 81       	ldd	r25, Y+5	; 0x05
     f3e:	0e 94 04 07 	call	0xe08	; 0xe08 <_ZN3pin4highEv>
     f42:	8f e9       	ldi	r24, 0x9F	; 159
     f44:	9f e0       	ldi	r25, 0x0F	; 15
     f46:	01 97       	sbiw	r24, 0x01	; 1
     f48:	f1 f7       	brne	.-4      	; 0xf46 <_ZN12stepperMotor6updateEv+0x40>
     f4a:	00 c0       	rjmp	.+0      	; 0xf4c <_ZN12stepperMotor6updateEv+0x46>
     f4c:	00 00       	nop
		_delay_us(1000);
		stepPinP_->low();
     f4e:	8c 81       	ldd	r24, Y+4	; 0x04
     f50:	9d 81       	ldd	r25, Y+5	; 0x05
     f52:	0e 94 17 07 	call	0xe2e	; 0xe2e <_ZN3pin3lowEv>
     f56:	8f e9       	ldi	r24, 0x9F	; 159
     f58:	9f e0       	ldi	r25, 0x0F	; 15
     f5a:	01 97       	sbiw	r24, 0x01	; 1
     f5c:	f1 f7       	brne	.-4      	; 0xf5a <_ZN12stepperMotor6updateEv+0x54>
     f5e:	00 c0       	rjmp	.+0      	; 0xf60 <_ZN12stepperMotor6updateEv+0x5a>
     f60:	00 00       	nop
		_delay_us(1000);
		//SendString(UART0,"target:");
		//SendInteger(UART0,stepperStepTargetPosition_);
		//SendString(UART0,"\n\rcurrentPos:");
		//SendInteger(UART0,stepperStepPosition_);
		stepperStepPosition_--;
     f62:	8a 81       	ldd	r24, Y+2	; 0x02
     f64:	9b 81       	ldd	r25, Y+3	; 0x03
     f66:	01 97       	sbiw	r24, 0x01	; 1
     f68:	9b 83       	std	Y+3, r25	; 0x03
     f6a:	8a 83       	std	Y+2, r24	; 0x02
void stepperMotor::stepRelativeRad(float rad) {
	stepRelative(rad * radToStepFactor_);
}

void stepperMotor::update() {
	while (stepperStepTargetPosition_ < stepperStepPosition_) {
     f6c:	28 81       	ld	r18, Y
     f6e:	39 81       	ldd	r19, Y+1	; 0x01
     f70:	28 17       	cp	r18, r24
     f72:	39 07       	cpc	r19, r25
     f74:	d4 f2       	brlt	.-76     	; 0xf2a <_ZN12stepperMotor6updateEv+0x24>
     f76:	d1 cf       	rjmp	.-94     	; 0xf1a <_ZN12stepperMotor6updateEv+0x14>
		step(true);
		
		_delay_ms(5);*/
	}
	while (stepperStepTargetPosition_ > stepperStepPosition_) {
		dirPinP_->low();
     f78:	8e 81       	ldd	r24, Y+6	; 0x06
     f7a:	9f 81       	ldd	r25, Y+7	; 0x07
     f7c:	0e 94 17 07 	call	0xe2e	; 0xe2e <_ZN3pin3lowEv>
     f80:	9a e1       	ldi	r25, 0x1A	; 26
     f82:	9a 95       	dec	r25
     f84:	f1 f7       	brne	.-4      	; 0xf82 <_ZN12stepperMotor6updateEv+0x7c>
     f86:	00 c0       	rjmp	.+0      	; 0xf88 <_ZN12stepperMotor6updateEv+0x82>
		_delay_us(5);
		stepPinP_->high();
     f88:	8c 81       	ldd	r24, Y+4	; 0x04
     f8a:	9d 81       	ldd	r25, Y+5	; 0x05
     f8c:	0e 94 04 07 	call	0xe08	; 0xe08 <_ZN3pin4highEv>
     f90:	8f e9       	ldi	r24, 0x9F	; 159
     f92:	9f e0       	ldi	r25, 0x0F	; 15
     f94:	01 97       	sbiw	r24, 0x01	; 1
     f96:	f1 f7       	brne	.-4      	; 0xf94 <_ZN12stepperMotor6updateEv+0x8e>
     f98:	00 c0       	rjmp	.+0      	; 0xf9a <_ZN12stepperMotor6updateEv+0x94>
     f9a:	00 00       	nop
		_delay_us(1000);
		stepPinP_->low();
     f9c:	8c 81       	ldd	r24, Y+4	; 0x04
     f9e:	9d 81       	ldd	r25, Y+5	; 0x05
     fa0:	0e 94 17 07 	call	0xe2e	; 0xe2e <_ZN3pin3lowEv>
     fa4:	8f e9       	ldi	r24, 0x9F	; 159
     fa6:	9f e0       	ldi	r25, 0x0F	; 15
     fa8:	01 97       	sbiw	r24, 0x01	; 1
     faa:	f1 f7       	brne	.-4      	; 0xfa8 <_ZN12stepperMotor6updateEv+0xa2>
     fac:	00 c0       	rjmp	.+0      	; 0xfae <_ZN12stepperMotor6updateEv+0xa8>
     fae:	00 00       	nop
		_delay_us(1000);
		//SendString(UART0,"target:");
		//SendInteger(UART0,stepperStepTargetPosition_);
		//SendString(UART0,"\n\rcurrentPos:");
		//SendInteger(UART0,stepperStepPosition_);
		stepperStepPosition_++;
     fb0:	8a 81       	ldd	r24, Y+2	; 0x02
     fb2:	9b 81       	ldd	r25, Y+3	; 0x03
     fb4:	01 96       	adiw	r24, 0x01	; 1
     fb6:	9b 83       	std	Y+3, r25	; 0x03
     fb8:	8a 83       	std	Y+2, r24	; 0x02
		/*
		step(true);
		
		_delay_ms(5);*/
	}
	while (stepperStepTargetPosition_ > stepperStepPosition_) {
     fba:	28 81       	ld	r18, Y
     fbc:	39 81       	ldd	r19, Y+1	; 0x01
     fbe:	82 17       	cp	r24, r18
     fc0:	93 07       	cpc	r25, r19
     fc2:	d4 f2       	brlt	.-76     	; 0xf78 <_ZN12stepperMotor6updateEv+0x72>
		step(false);
		
		_delay_ms(5);
		*/
	}
}
     fc4:	df 91       	pop	r29
     fc6:	cf 91       	pop	r28
     fc8:	08 95       	ret

00000fca <_ZN12stepperMotor17setReductionRatioEfi>:

void stepperMotor::setReductionRatio(float gearRatio, int stepsPerRev) {
     fca:	cf 92       	push	r12
     fcc:	df 92       	push	r13
     fce:	ef 92       	push	r14
     fd0:	ff 92       	push	r15
     fd2:	cf 93       	push	r28
     fd4:	df 93       	push	r29
     fd6:	ec 01       	movw	r28, r24
     fd8:	6a 01       	movw	r12, r20
     fda:	7b 01       	movw	r14, r22
	radToStepFactor_ = gearRatio * stepsPerRev / 2 / M_PI;
     fdc:	b9 01       	movw	r22, r18
     fde:	33 0f       	add	r19, r19
     fe0:	88 0b       	sbc	r24, r24
     fe2:	99 0b       	sbc	r25, r25
     fe4:	0e 94 2c 0e 	call	0x1c58	; 0x1c58 <__floatsisf>
     fe8:	a7 01       	movw	r20, r14
     fea:	96 01       	movw	r18, r12
     fec:	0e 94 7b 0f 	call	0x1ef6	; 0x1ef6 <__mulsf3>
     ff0:	20 e0       	ldi	r18, 0x00	; 0
     ff2:	30 e0       	ldi	r19, 0x00	; 0
     ff4:	40 e0       	ldi	r20, 0x00	; 0
     ff6:	5f e3       	ldi	r21, 0x3F	; 63
     ff8:	0e 94 7b 0f 	call	0x1ef6	; 0x1ef6 <__mulsf3>
     ffc:	2b ed       	ldi	r18, 0xDB	; 219
     ffe:	3f e0       	ldi	r19, 0x0F	; 15
    1000:	49 e4       	ldi	r20, 0x49	; 73
    1002:	50 e4       	ldi	r21, 0x40	; 64
    1004:	0e 94 82 0d 	call	0x1b04	; 0x1b04 <__divsf3>
    1008:	68 87       	std	Y+8, r22	; 0x08
    100a:	79 87       	std	Y+9, r23	; 0x09
    100c:	8a 87       	std	Y+10, r24	; 0x0a
    100e:	9b 87       	std	Y+11, r25	; 0x0b
};
    1010:	df 91       	pop	r29
    1012:	cf 91       	pop	r28
    1014:	ff 90       	pop	r15
    1016:	ef 90       	pop	r14
    1018:	df 90       	pop	r13
    101a:	cf 90       	pop	r12
    101c:	08 95       	ret

0000101e <_Z9initTimerv>:
}
*/

unsigned long ovfCount = 0;
void initTimer(){
	TCCR1B |= (1 << CS11); //Set Prescale to 8
    101e:	e1 e8       	ldi	r30, 0x81	; 129
    1020:	f0 e0       	ldi	r31, 0x00	; 0
    1022:	80 81       	ld	r24, Z
    1024:	82 60       	ori	r24, 0x02	; 2
    1026:	80 83       	st	Z, r24
	TIMSK1 |= (1 << TOIE1); //Enable the Overflow Interrupt
    1028:	ef e6       	ldi	r30, 0x6F	; 111
    102a:	f0 e0       	ldi	r31, 0x00	; 0
    102c:	80 81       	ld	r24, Z
    102e:	81 60       	ori	r24, 0x01	; 1
    1030:	80 83       	st	Z, r24
	TCNT1 = 0;
    1032:	10 92 85 00 	sts	0x0085, r1	; 0x800085 <__TEXT_REGION_LENGTH__+0x7e0085>
    1036:	10 92 84 00 	sts	0x0084, r1	; 0x800084 <__TEXT_REGION_LENGTH__+0x7e0084>
	//Enable Interrupts
	sei();
    103a:	78 94       	sei
    103c:	08 95       	ret

0000103e <_Z5Microv>:
}

long Micro() {
	return (TCNT1 / 2) + ((ovfCount * 65534 ) / 2);
    103e:	e0 91 84 00 	lds	r30, 0x0084	; 0x800084 <__TEXT_REGION_LENGTH__+0x7e0084>
    1042:	f0 91 85 00 	lds	r31, 0x0085	; 0x800085 <__TEXT_REGION_LENGTH__+0x7e0085>
    1046:	20 91 1c 01 	lds	r18, 0x011C	; 0x80011c <__data_end>
    104a:	30 91 1d 01 	lds	r19, 0x011D	; 0x80011d <__data_end+0x1>
    104e:	40 91 1e 01 	lds	r20, 0x011E	; 0x80011e <__data_end+0x2>
    1052:	50 91 1f 01 	lds	r21, 0x011F	; 0x80011f <__data_end+0x3>
    1056:	ae ef       	ldi	r26, 0xFE	; 254
    1058:	bf ef       	ldi	r27, 0xFF	; 255
    105a:	0e 94 73 10 	call	0x20e6	; 0x20e6 <__muluhisi3>
    105e:	dc 01       	movw	r26, r24
    1060:	cb 01       	movw	r24, r22
    1062:	b6 95       	lsr	r27
    1064:	a7 95       	ror	r26
    1066:	97 95       	ror	r25
    1068:	87 95       	ror	r24
    106a:	f6 95       	lsr	r31
    106c:	e7 95       	ror	r30
    106e:	bc 01       	movw	r22, r24
    1070:	cd 01       	movw	r24, r26
    1072:	6e 0f       	add	r22, r30
    1074:	7f 1f       	adc	r23, r31
    1076:	81 1d       	adc	r24, r1
    1078:	91 1d       	adc	r25, r1
}
    107a:	08 95       	ret

0000107c <__vector_13>:

ISR(TIMER1_OVF_vect) {
    107c:	1f 92       	push	r1
    107e:	0f 92       	push	r0
    1080:	0f b6       	in	r0, 0x3f	; 63
    1082:	0f 92       	push	r0
    1084:	11 24       	eor	r1, r1
    1086:	8f 93       	push	r24
    1088:	9f 93       	push	r25
    108a:	af 93       	push	r26
    108c:	bf 93       	push	r27
	ovfCount++;
    108e:	80 91 1c 01 	lds	r24, 0x011C	; 0x80011c <__data_end>
    1092:	90 91 1d 01 	lds	r25, 0x011D	; 0x80011d <__data_end+0x1>
    1096:	a0 91 1e 01 	lds	r26, 0x011E	; 0x80011e <__data_end+0x2>
    109a:	b0 91 1f 01 	lds	r27, 0x011F	; 0x80011f <__data_end+0x3>
    109e:	01 96       	adiw	r24, 0x01	; 1
    10a0:	a1 1d       	adc	r26, r1
    10a2:	b1 1d       	adc	r27, r1
    10a4:	80 93 1c 01 	sts	0x011C, r24	; 0x80011c <__data_end>
    10a8:	90 93 1d 01 	sts	0x011D, r25	; 0x80011d <__data_end+0x1>
    10ac:	a0 93 1e 01 	sts	0x011E, r26	; 0x80011e <__data_end+0x2>
    10b0:	b0 93 1f 01 	sts	0x011F, r27	; 0x80011f <__data_end+0x3>
    10b4:	bf 91       	pop	r27
    10b6:	af 91       	pop	r26
    10b8:	9f 91       	pop	r25
    10ba:	8f 91       	pop	r24
    10bc:	0f 90       	pop	r0
    10be:	0f be       	out	0x3f, r0	; 63
    10c0:	0f 90       	pop	r0
    10c2:	1f 90       	pop	r1
    10c4:	18 95       	reti

000010c6 <main>:
	SendString(UART0,"\n\r");
	return;
}

int main(void)
{
    10c6:	cf 93       	push	r28
    10c8:	df 93       	push	r29
    10ca:	cd b7       	in	r28, 0x3d	; 61
    10cc:	de b7       	in	r29, 0x3e	; 62
    10ce:	c5 5e       	subi	r28, 0xE5	; 229
    10d0:	d1 09       	sbc	r29, r1
    10d2:	0f b6       	in	r0, 0x3f	; 63
    10d4:	f8 94       	cli
    10d6:	de bf       	out	0x3e, r29	; 62
    10d8:	0f be       	out	0x3f, r0	; 63
    10da:	cd bf       	out	0x3d, r28	; 61
	// Init
	pin X_STEP_PIN(&DDRD,&PORTD,2,false);
    10dc:	00 e0       	ldi	r16, 0x00	; 0
    10de:	22 e0       	ldi	r18, 0x02	; 2
    10e0:	4b e2       	ldi	r20, 0x2B	; 43
    10e2:	50 e0       	ldi	r21, 0x00	; 0
    10e4:	6a e2       	ldi	r22, 0x2A	; 42
    10e6:	70 e0       	ldi	r23, 0x00	; 0
    10e8:	ce 01       	movw	r24, r28
    10ea:	01 96       	adiw	r24, 0x01	; 1
    10ec:	0e 94 2c 07 	call	0xe58	; 0xe58 <_ZN3pinC1EPVhS1_hb>
	pin Y_STEP_PIN(&DDRD,&PORTD,3,false);
    10f0:	23 e0       	ldi	r18, 0x03	; 3
    10f2:	4b e2       	ldi	r20, 0x2B	; 43
    10f4:	50 e0       	ldi	r21, 0x00	; 0
    10f6:	6a e2       	ldi	r22, 0x2A	; 42
    10f8:	70 e0       	ldi	r23, 0x00	; 0
    10fa:	ce 01       	movw	r24, r28
    10fc:	05 96       	adiw	r24, 0x05	; 5
    10fe:	0e 94 2c 07 	call	0xe58	; 0xe58 <_ZN3pinC1EPVhS1_hb>
	pin Z_STEP_PIN(&DDRD,&PORTD,4,false);
    1102:	24 e0       	ldi	r18, 0x04	; 4
    1104:	4b e2       	ldi	r20, 0x2B	; 43
    1106:	50 e0       	ldi	r21, 0x00	; 0
    1108:	6a e2       	ldi	r22, 0x2A	; 42
    110a:	70 e0       	ldi	r23, 0x00	; 0
    110c:	ce 01       	movw	r24, r28
    110e:	09 96       	adiw	r24, 0x09	; 9
    1110:	0e 94 2c 07 	call	0xe58	; 0xe58 <_ZN3pinC1EPVhS1_hb>
	pin X_DIR_PIN(&DDRD,&PORTD,5,false);
    1114:	25 e0       	ldi	r18, 0x05	; 5
    1116:	4b e2       	ldi	r20, 0x2B	; 43
    1118:	50 e0       	ldi	r21, 0x00	; 0
    111a:	6a e2       	ldi	r22, 0x2A	; 42
    111c:	70 e0       	ldi	r23, 0x00	; 0
    111e:	ce 01       	movw	r24, r28
    1120:	0d 96       	adiw	r24, 0x0d	; 13
    1122:	0e 94 2c 07 	call	0xe58	; 0xe58 <_ZN3pinC1EPVhS1_hb>
	pin Y_DIR_PIN(&DDRD,&PORTD,6,false);
    1126:	26 e0       	ldi	r18, 0x06	; 6
    1128:	4b e2       	ldi	r20, 0x2B	; 43
    112a:	50 e0       	ldi	r21, 0x00	; 0
    112c:	6a e2       	ldi	r22, 0x2A	; 42
    112e:	70 e0       	ldi	r23, 0x00	; 0
    1130:	ce 01       	movw	r24, r28
    1132:	41 96       	adiw	r24, 0x11	; 17
    1134:	0e 94 2c 07 	call	0xe58	; 0xe58 <_ZN3pinC1EPVhS1_hb>
	pin Z_DIR_PIN(&DDRD,&PORTD,7,false);
    1138:	27 e0       	ldi	r18, 0x07	; 7
    113a:	4b e2       	ldi	r20, 0x2B	; 43
    113c:	50 e0       	ldi	r21, 0x00	; 0
    113e:	6a e2       	ldi	r22, 0x2A	; 42
    1140:	70 e0       	ldi	r23, 0x00	; 0
    1142:	ce 01       	movw	r24, r28
    1144:	45 96       	adiw	r24, 0x15	; 21
    1146:	0e 94 2c 07 	call	0xe58	; 0xe58 <_ZN3pinC1EPVhS1_hb>
	
	//pin* pinBase[] = {};
	//pin* pinLow[] = {};
	//pin* pinHigh[] = {};
		
	stepperMotor stepperBase(&X_STEP_PIN,&X_DIR_PIN);
    114a:	ae 01       	movw	r20, r28
    114c:	43 5f       	subi	r20, 0xF3	; 243
    114e:	5f 4f       	sbci	r21, 0xFF	; 255
    1150:	be 01       	movw	r22, r28
    1152:	6f 5f       	subi	r22, 0xFF	; 255
    1154:	7f 4f       	sbci	r23, 0xFF	; 255
    1156:	ce 01       	movw	r24, r28
    1158:	49 96       	adiw	r24, 0x19	; 25
    115a:	0e 94 57 07 	call	0xeae	; 0xeae <_ZN12stepperMotorC1EP3pinS1_>
	stepperMotor stepperLow(&Y_STEP_PIN,&Y_DIR_PIN);
    115e:	ae 01       	movw	r20, r28
    1160:	4f 5e       	subi	r20, 0xEF	; 239
    1162:	5f 4f       	sbci	r21, 0xFF	; 255
    1164:	be 01       	movw	r22, r28
    1166:	6b 5f       	subi	r22, 0xFB	; 251
    1168:	7f 4f       	sbci	r23, 0xFF	; 255
    116a:	ce 01       	movw	r24, r28
    116c:	c6 96       	adiw	r24, 0x36	; 54
    116e:	0e 94 57 07 	call	0xeae	; 0xeae <_ZN12stepperMotorC1EP3pinS1_>
	stepperMotor stepperHigh(&Z_STEP_PIN,&Z_DIR_PIN);
    1172:	ae 01       	movw	r20, r28
    1174:	4b 5e       	subi	r20, 0xEB	; 235
    1176:	5f 4f       	sbci	r21, 0xFF	; 255
    1178:	be 01       	movw	r22, r28
    117a:	67 5f       	subi	r22, 0xF7	; 247
    117c:	7f 4f       	sbci	r23, 0xFF	; 255
    117e:	ce 01       	movw	r24, r28
    1180:	8d 5a       	subi	r24, 0xAD	; 173
    1182:	9f 4f       	sbci	r25, 0xFF	; 255
    1184:	0e 94 57 07 	call	0xeae	; 0xeae <_ZN12stepperMotorC1EP3pinS1_>

	armGeometry geometry;
    1188:	ce 01       	movw	r24, r28
    118a:	80 59       	subi	r24, 0x90	; 144
    118c:	9f 4f       	sbci	r25, 0xFF	; 255
    118e:	0e 94 92 00 	call	0x124	; 0x124 <_ZN11armGeometryC1Ev>
	Interpolation interpolator;
    1192:	ce 01       	movw	r24, r28
    1194:	88 57       	subi	r24, 0x78	; 120
    1196:	9f 4f       	sbci	r25, 0xFF	; 255
    1198:	0e 94 7b 03 	call	0x6f6	; 0x6f6 <_ZN13InterpolationC1Ev>
	
	stepperHigh.setReductionRatio(32.0 / 9.0, 200);  //big gear: 32, small gear: 9, steps per rev: 200,
    119c:	28 ec       	ldi	r18, 0xC8	; 200
    119e:	30 e0       	ldi	r19, 0x00	; 0
    11a0:	49 e3       	ldi	r20, 0x39	; 57
    11a2:	5e e8       	ldi	r21, 0x8E	; 142
    11a4:	63 e6       	ldi	r22, 0x63	; 99
    11a6:	70 e4       	ldi	r23, 0x40	; 64
    11a8:	ce 01       	movw	r24, r28
    11aa:	8d 5a       	subi	r24, 0xAD	; 173
    11ac:	9f 4f       	sbci	r25, 0xFF	; 255
    11ae:	0e 94 e5 07 	call	0xfca	; 0xfca <_ZN12stepperMotor17setReductionRatioEfi>
	stepperLow.setReductionRatio( 32.0 / 9.0, 200);
    11b2:	28 ec       	ldi	r18, 0xC8	; 200
    11b4:	30 e0       	ldi	r19, 0x00	; 0
    11b6:	49 e3       	ldi	r20, 0x39	; 57
    11b8:	5e e8       	ldi	r21, 0x8E	; 142
    11ba:	63 e6       	ldi	r22, 0x63	; 99
    11bc:	70 e4       	ldi	r23, 0x40	; 64
    11be:	ce 01       	movw	r24, r28
    11c0:	c6 96       	adiw	r24, 0x36	; 54
    11c2:	0e 94 e5 07 	call	0xfca	; 0xfca <_ZN12stepperMotor17setReductionRatioEfi>
	stepperBase.setReductionRatio(32.0 / 9.0, 200);
    11c6:	28 ec       	ldi	r18, 0xC8	; 200
    11c8:	30 e0       	ldi	r19, 0x00	; 0
    11ca:	49 e3       	ldi	r20, 0x39	; 57
    11cc:	5e e8       	ldi	r21, 0x8E	; 142
    11ce:	63 e6       	ldi	r22, 0x63	; 99
    11d0:	70 e4       	ldi	r23, 0x40	; 64
    11d2:	ce 01       	movw	r24, r28
    11d4:	49 96       	adiw	r24, 0x19	; 25
    11d6:	0e 94 e5 07 	call	0xfca	; 0xfca <_ZN12stepperMotor17setReductionRatioEfi>
	
	//start positions..
	stepperHigh.setPositionRad(M_PI / 2.0); //90
    11da:	4b ed       	ldi	r20, 0xDB	; 219
    11dc:	5f e0       	ldi	r21, 0x0F	; 15
    11de:	69 ec       	ldi	r22, 0xC9	; 201
    11e0:	7f e3       	ldi	r23, 0x3F	; 63
    11e2:	ce 01       	movw	r24, r28
    11e4:	8d 5a       	subi	r24, 0xAD	; 173
    11e6:	9f 4f       	sbci	r25, 0xFF	; 255
    11e8:	0e 94 5d 07 	call	0xeba	; 0xeba <_ZN12stepperMotor14setPositionRadEf>
	stepperLow.setPositionRad(0);			// 0
    11ec:	40 e0       	ldi	r20, 0x00	; 0
    11ee:	50 e0       	ldi	r21, 0x00	; 0
    11f0:	ba 01       	movw	r22, r20
    11f2:	ce 01       	movw	r24, r28
    11f4:	c6 96       	adiw	r24, 0x36	; 54
    11f6:	0e 94 5d 07 	call	0xeba	; 0xeba <_ZN12stepperMotor14setPositionRadEf>
	stepperBase.setPositionRad(0);			// 0
    11fa:	40 e0       	ldi	r20, 0x00	; 0
    11fc:	50 e0       	ldi	r21, 0x00	; 0
    11fe:	ba 01       	movw	r22, r20
    1200:	ce 01       	movw	r24, r28
    1202:	49 96       	adiw	r24, 0x19	; 25
    1204:	0e 94 5d 07 	call	0xeba	; 0xeba <_ZN12stepperMotor14setPositionRadEf>
	
	// Init interpolation and uart
	initTimer();
    1208:	0e 94 0f 08 	call	0x101e	; 0x101e <_Z9initTimerv>
	InitUART(UART0,9600,8,0);
    120c:	28 e0       	ldi	r18, 0x08	; 8
    120e:	40 e8       	ldi	r20, 0x80	; 128
    1210:	55 e2       	ldi	r21, 0x25	; 37
    1212:	60 e0       	ldi	r22, 0x00	; 0
    1214:	70 e0       	ldi	r23, 0x00	; 0
    1216:	80 ec       	ldi	r24, 0xC0	; 192
    1218:	90 e0       	ldi	r25, 0x00	; 0
    121a:	0e 94 6a 0c 	call	0x18d4	; 0x18d4 <_Z8InitUARTjmhc>
	interpolator.setCurrentPos(0,120,120,0);
    121e:	81 2c       	mov	r8, r1
    1220:	91 2c       	mov	r9, r1
    1222:	54 01       	movw	r10, r8
    1224:	0f 2e       	mov	r0, r31
    1226:	c1 2c       	mov	r12, r1
    1228:	d1 2c       	mov	r13, r1
    122a:	f0 ef       	ldi	r31, 0xF0	; 240
    122c:	ef 2e       	mov	r14, r31
    122e:	f2 e4       	ldi	r31, 0x42	; 66
    1230:	ff 2e       	mov	r15, r31
    1232:	f0 2d       	mov	r31, r0
    1234:	97 01       	movw	r18, r14
    1236:	86 01       	movw	r16, r12
    1238:	b5 01       	movw	r22, r10
    123a:	a4 01       	movw	r20, r8
    123c:	ce 01       	movw	r24, r28
    123e:	88 57       	subi	r24, 0x78	; 120
    1240:	9f 4f       	sbci	r25, 0xFF	; 255
    1242:	0e 94 e7 03 	call	0x7ce	; 0x7ce <_ZN13Interpolation13setCurrentPosEffff>
	//interpolator.setInterpolation(0,120,120,0, 0,120,120,0);
	Point targetPoint = {0,120,120,0};
    1246:	80 e1       	ldi	r24, 0x10	; 16
    1248:	e0 e0       	ldi	r30, 0x00	; 0
    124a:	f1 e0       	ldi	r31, 0x01	; 1
    124c:	de 01       	movw	r26, r28
    124e:	ab 53       	subi	r26, 0x3B	; 59
    1250:	bf 4f       	sbci	r27, 0xFF	; 255
    1252:	01 90       	ld	r0, Z+
    1254:	0d 92       	st	X+, r0
    1256:	8a 95       	dec	r24
    1258:	e1 f7       	brne	.-8      	; 0x1252 <main+0x18c>
	
	BluetoothCommunicator btCom;
    125a:	ce 01       	movw	r24, r28
    125c:	8b 52       	subi	r24, 0x2B	; 43
    125e:	9f 4f       	sbci	r25, 0xFF	; 255
    1260:	0e 94 dd 01 	call	0x3ba	; 0x3ba <_ZN21BluetoothCommunicatorC1Ev>
	//Loop
	int twice = 0;
	interpolator.setInterpolation(targetPoint,10);
    1264:	81 e4       	ldi	r24, 0x41	; 65
    1266:	8f 93       	push	r24
    1268:	80 e2       	ldi	r24, 0x20	; 32
    126a:	8f 93       	push	r24
    126c:	1f 92       	push	r1
    126e:	1f 92       	push	r1
    1270:	cb 53       	subi	r28, 0x3B	; 59
    1272:	df 4f       	sbci	r29, 0xFF	; 255
    1274:	88 80       	ld	r8, Y
    1276:	c5 5c       	subi	r28, 0xC5	; 197
    1278:	d0 40       	sbci	r29, 0x00	; 0
    127a:	ca 53       	subi	r28, 0x3A	; 58
    127c:	df 4f       	sbci	r29, 0xFF	; 255
    127e:	98 80       	ld	r9, Y
    1280:	c6 5c       	subi	r28, 0xC6	; 198
    1282:	d0 40       	sbci	r29, 0x00	; 0
    1284:	c9 53       	subi	r28, 0x39	; 57
    1286:	df 4f       	sbci	r29, 0xFF	; 255
    1288:	a8 80       	ld	r10, Y
    128a:	c7 5c       	subi	r28, 0xC7	; 199
    128c:	d0 40       	sbci	r29, 0x00	; 0
    128e:	c8 53       	subi	r28, 0x38	; 56
    1290:	df 4f       	sbci	r29, 0xFF	; 255
    1292:	b8 80       	ld	r11, Y
    1294:	c8 5c       	subi	r28, 0xC8	; 200
    1296:	d0 40       	sbci	r29, 0x00	; 0
    1298:	c7 53       	subi	r28, 0x37	; 55
    129a:	df 4f       	sbci	r29, 0xFF	; 255
    129c:	c8 80       	ld	r12, Y
    129e:	c9 5c       	subi	r28, 0xC9	; 201
    12a0:	d0 40       	sbci	r29, 0x00	; 0
    12a2:	c6 53       	subi	r28, 0x36	; 54
    12a4:	df 4f       	sbci	r29, 0xFF	; 255
    12a6:	d8 80       	ld	r13, Y
    12a8:	ca 5c       	subi	r28, 0xCA	; 202
    12aa:	d0 40       	sbci	r29, 0x00	; 0
    12ac:	c5 53       	subi	r28, 0x35	; 53
    12ae:	df 4f       	sbci	r29, 0xFF	; 255
    12b0:	e8 80       	ld	r14, Y
    12b2:	cb 5c       	subi	r28, 0xCB	; 203
    12b4:	d0 40       	sbci	r29, 0x00	; 0
    12b6:	c4 53       	subi	r28, 0x34	; 52
    12b8:	df 4f       	sbci	r29, 0xFF	; 255
    12ba:	f8 80       	ld	r15, Y
    12bc:	cc 5c       	subi	r28, 0xCC	; 204
    12be:	d0 40       	sbci	r29, 0x00	; 0
    12c0:	c3 53       	subi	r28, 0x33	; 51
    12c2:	df 4f       	sbci	r29, 0xFF	; 255
    12c4:	08 81       	ld	r16, Y
    12c6:	cd 5c       	subi	r28, 0xCD	; 205
    12c8:	d0 40       	sbci	r29, 0x00	; 0
    12ca:	c2 53       	subi	r28, 0x32	; 50
    12cc:	df 4f       	sbci	r29, 0xFF	; 255
    12ce:	18 81       	ld	r17, Y
    12d0:	ce 5c       	subi	r28, 0xCE	; 206
    12d2:	d0 40       	sbci	r29, 0x00	; 0
    12d4:	c1 53       	subi	r28, 0x31	; 49
    12d6:	df 4f       	sbci	r29, 0xFF	; 255
    12d8:	28 81       	ld	r18, Y
    12da:	cf 5c       	subi	r28, 0xCF	; 207
    12dc:	d0 40       	sbci	r29, 0x00	; 0
    12de:	c0 53       	subi	r28, 0x30	; 48
    12e0:	df 4f       	sbci	r29, 0xFF	; 255
    12e2:	38 81       	ld	r19, Y
    12e4:	c0 5d       	subi	r28, 0xD0	; 208
    12e6:	d0 40       	sbci	r29, 0x00	; 0
    12e8:	cf 52       	subi	r28, 0x2F	; 47
    12ea:	df 4f       	sbci	r29, 0xFF	; 255
    12ec:	48 81       	ld	r20, Y
    12ee:	c1 5d       	subi	r28, 0xD1	; 209
    12f0:	d0 40       	sbci	r29, 0x00	; 0
    12f2:	ce 52       	subi	r28, 0x2E	; 46
    12f4:	df 4f       	sbci	r29, 0xFF	; 255
    12f6:	58 81       	ld	r21, Y
    12f8:	c2 5d       	subi	r28, 0xD2	; 210
    12fa:	d0 40       	sbci	r29, 0x00	; 0
    12fc:	cd 52       	subi	r28, 0x2D	; 45
    12fe:	df 4f       	sbci	r29, 0xFF	; 255
    1300:	68 81       	ld	r22, Y
    1302:	c3 5d       	subi	r28, 0xD3	; 211
    1304:	d0 40       	sbci	r29, 0x00	; 0
    1306:	cc 52       	subi	r28, 0x2C	; 44
    1308:	df 4f       	sbci	r29, 0xFF	; 255
    130a:	78 81       	ld	r23, Y
    130c:	c4 5d       	subi	r28, 0xD4	; 212
    130e:	d0 40       	sbci	r29, 0x00	; 0
    1310:	ce 01       	movw	r24, r28
    1312:	88 57       	subi	r24, 0x78	; 120
    1314:	9f 4f       	sbci	r25, 0xFF	; 255
    1316:	0e 94 bb 05 	call	0xb76	; 0xb76 <_ZN13Interpolation16setInterpolationE5Pointf>
    131a:	0f 90       	pop	r0
    131c:	0f 90       	pop	r0
    131e:	0f 90       	pop	r0
    1320:	0f 90       	pop	r0
	while (1)
	{	
		//SendString(UART0,"startWhile\n\r");
		interpolator.updateActualPosition();
    1322:	ce 01       	movw	r24, r28
    1324:	88 57       	subi	r24, 0x78	; 120
    1326:	9f 4f       	sbci	r25, 0xFF	; 255
    1328:	0e 94 65 06 	call	0xcca	; 0xcca <_ZN13Interpolation20updateActualPositionEv>
		geometry.set(interpolator.getXPosmm(), interpolator.getYPosmm(), interpolator.getZPosmm());
    132c:	ce 01       	movw	r24, r28
    132e:	88 57       	subi	r24, 0x78	; 120
    1330:	9f 4f       	sbci	r25, 0xFF	; 255
    1332:	0e 94 fe 06 	call	0xdfc	; 0xdfc <_ZNK13Interpolation9getZPosmmEv>
    1336:	6b 01       	movw	r12, r22
    1338:	7c 01       	movw	r14, r24
    133a:	ce 01       	movw	r24, r28
    133c:	88 57       	subi	r24, 0x78	; 120
    133e:	9f 4f       	sbci	r25, 0xFF	; 255
    1340:	0e 94 f8 06 	call	0xdf0	; 0xdf0 <_ZNK13Interpolation9getYPosmmEv>
    1344:	4b 01       	movw	r8, r22
    1346:	5c 01       	movw	r10, r24
    1348:	ce 01       	movw	r24, r28
    134a:	88 57       	subi	r24, 0x78	; 120
    134c:	9f 4f       	sbci	r25, 0xFF	; 255
    134e:	0e 94 f2 06 	call	0xde4	; 0xde4 <_ZNK13Interpolation9getXPosmmEv>
    1352:	ab 01       	movw	r20, r22
    1354:	bc 01       	movw	r22, r24
    1356:	95 01       	movw	r18, r10
    1358:	84 01       	movw	r16, r8
    135a:	ce 01       	movw	r24, r28
    135c:	80 59       	subi	r24, 0x90	; 144
    135e:	9f 4f       	sbci	r25, 0xFF	; 255
    1360:	0e 94 c1 01 	call	0x382	; 0x382 <_ZN11armGeometry3setEfff>
		stepperBase.stepToPositionRad(geometry.getRotRad());
    1364:	ce 01       	movw	r24, r28
    1366:	80 59       	subi	r24, 0x90	; 144
    1368:	9f 4f       	sbci	r25, 0xFF	; 255
    136a:	0e 94 93 00 	call	0x126	; 0x126 <_ZNK11armGeometry9getRotRadEv>
    136e:	ab 01       	movw	r20, r22
    1370:	bc 01       	movw	r22, r24
    1372:	ce 01       	movw	r24, r28
    1374:	49 96       	adiw	r24, 0x19	; 25
    1376:	0e 94 71 07 	call	0xee2	; 0xee2 <_ZN12stepperMotor17stepToPositionRadEf>
		stepperLow.stepToPositionRad(geometry.getLowRad());
    137a:	ce 01       	movw	r24, r28
    137c:	80 59       	subi	r24, 0x90	; 144
    137e:	9f 4f       	sbci	r25, 0xFF	; 255
    1380:	0e 94 99 00 	call	0x132	; 0x132 <_ZNK11armGeometry9getLowRadEv>
    1384:	ab 01       	movw	r20, r22
    1386:	bc 01       	movw	r22, r24
    1388:	ce 01       	movw	r24, r28
    138a:	c6 96       	adiw	r24, 0x36	; 54
    138c:	0e 94 71 07 	call	0xee2	; 0xee2 <_ZN12stepperMotor17stepToPositionRadEf>
		stepperHigh.stepToPositionRad(geometry.getHighRad());
    1390:	ce 01       	movw	r24, r28
    1392:	80 59       	subi	r24, 0x90	; 144
    1394:	9f 4f       	sbci	r25, 0xFF	; 255
    1396:	0e 94 9f 00 	call	0x13e	; 0x13e <_ZNK11armGeometry10getHighRadEv>
    139a:	ab 01       	movw	r20, r22
    139c:	bc 01       	movw	r22, r24
    139e:	ce 01       	movw	r24, r28
    13a0:	8d 5a       	subi	r24, 0xAD	; 173
    13a2:	9f 4f       	sbci	r25, 0xFF	; 255
    13a4:	0e 94 71 07 	call	0xee2	; 0xee2 <_ZN12stepperMotor17stepToPositionRadEf>
		//SendString(UART0,"stepToPos..\n\r");
		
		stepperBase.update();
    13a8:	ce 01       	movw	r24, r28
    13aa:	49 96       	adiw	r24, 0x19	; 25
    13ac:	0e 94 83 07 	call	0xf06	; 0xf06 <_ZN12stepperMotor6updateEv>
		stepperLow.update();
    13b0:	ce 01       	movw	r24, r28
    13b2:	c6 96       	adiw	r24, 0x36	; 54
    13b4:	0e 94 83 07 	call	0xf06	; 0xf06 <_ZN12stepperMotor6updateEv>
		stepperHigh.update();
    13b8:	ce 01       	movw	r24, r28
    13ba:	8d 5a       	subi	r24, 0xAD	; 173
    13bc:	9f 4f       	sbci	r25, 0xFF	; 255
    13be:	0e 94 83 07 	call	0xf06	; 0xf06 <_ZN12stepperMotor6updateEv>
		
		if (interpolator.isFinished())
    13c2:	ce 01       	movw	r24, r28
    13c4:	88 57       	subi	r24, 0x78	; 120
    13c6:	9f 4f       	sbci	r25, 0xFF	; 255
    13c8:	0e 94 eb 06 	call	0xdd6	; 0xdd6 <_ZNK13Interpolation10isFinishedEv>
    13cc:	88 23       	and	r24, r24
    13ce:	09 f4       	brne	.+2      	; 0x13d2 <main+0x30c>
    13d0:	a8 cf       	rjmp	.-176    	; 0x1322 <main+0x25c>
		{
			//SendString(UART0,"IsFinnished()\n\r");
			targetPoint = btCom.ReadData(targetPoint);
    13d2:	8d b7       	in	r24, 0x3d	; 61
    13d4:	9e b7       	in	r25, 0x3e	; 62
    13d6:	40 97       	sbiw	r24, 0x10	; 16
    13d8:	0f b6       	in	r0, 0x3f	; 63
    13da:	f8 94       	cli
    13dc:	9e bf       	out	0x3e, r25	; 62
    13de:	0f be       	out	0x3f, r0	; 63
    13e0:	8d bf       	out	0x3d, r24	; 61
    13e2:	ad b7       	in	r26, 0x3d	; 61
    13e4:	be b7       	in	r27, 0x3e	; 62
    13e6:	11 96       	adiw	r26, 0x01	; 1
    13e8:	80 e1       	ldi	r24, 0x10	; 16
    13ea:	fe 01       	movw	r30, r28
    13ec:	eb 53       	subi	r30, 0x3B	; 59
    13ee:	ff 4f       	sbci	r31, 0xFF	; 255
    13f0:	01 90       	ld	r0, Z+
    13f2:	0d 92       	st	X+, r0
    13f4:	8a 95       	dec	r24
    13f6:	e1 f7       	brne	.-8      	; 0x13f0 <main+0x32a>
    13f8:	be 01       	movw	r22, r28
    13fa:	6b 52       	subi	r22, 0x2B	; 43
    13fc:	7f 4f       	sbci	r23, 0xFF	; 255
    13fe:	ce 01       	movw	r24, r28
    1400:	8a 52       	subi	r24, 0x2A	; 42
    1402:	9f 4f       	sbci	r25, 0xFF	; 255
    1404:	0e 94 de 01 	call	0x3bc	; 0x3bc <_ZN21BluetoothCommunicator8ReadDataE5Point>
    1408:	80 e1       	ldi	r24, 0x10	; 16
    140a:	fe 01       	movw	r30, r28
    140c:	ea 52       	subi	r30, 0x2A	; 42
    140e:	ff 4f       	sbci	r31, 0xFF	; 255
    1410:	de 01       	movw	r26, r28
    1412:	ab 53       	subi	r26, 0x3B	; 59
    1414:	bf 4f       	sbci	r27, 0xFF	; 255
    1416:	01 90       	ld	r0, Z+
    1418:	0d 92       	st	X+, r0
    141a:	8a 95       	dec	r24
    141c:	e1 f7       	brne	.-8      	; 0x1416 <main+0x350>
			//printPoint(targetPoint);
			interpolator.setInterpolation(targetPoint,20);
    141e:	81 e4       	ldi	r24, 0x41	; 65
    1420:	8f 93       	push	r24
    1422:	80 ea       	ldi	r24, 0xA0	; 160
    1424:	8f 93       	push	r24
    1426:	1f 92       	push	r1
    1428:	1f 92       	push	r1
    142a:	cb 53       	subi	r28, 0x3B	; 59
    142c:	df 4f       	sbci	r29, 0xFF	; 255
    142e:	88 80       	ld	r8, Y
    1430:	c5 5c       	subi	r28, 0xC5	; 197
    1432:	d0 40       	sbci	r29, 0x00	; 0
    1434:	ca 53       	subi	r28, 0x3A	; 58
    1436:	df 4f       	sbci	r29, 0xFF	; 255
    1438:	98 80       	ld	r9, Y
    143a:	c6 5c       	subi	r28, 0xC6	; 198
    143c:	d0 40       	sbci	r29, 0x00	; 0
    143e:	c9 53       	subi	r28, 0x39	; 57
    1440:	df 4f       	sbci	r29, 0xFF	; 255
    1442:	a8 80       	ld	r10, Y
    1444:	c7 5c       	subi	r28, 0xC7	; 199
    1446:	d0 40       	sbci	r29, 0x00	; 0
    1448:	c8 53       	subi	r28, 0x38	; 56
    144a:	df 4f       	sbci	r29, 0xFF	; 255
    144c:	b8 80       	ld	r11, Y
    144e:	c8 5c       	subi	r28, 0xC8	; 200
    1450:	d0 40       	sbci	r29, 0x00	; 0
    1452:	c7 53       	subi	r28, 0x37	; 55
    1454:	df 4f       	sbci	r29, 0xFF	; 255
    1456:	c8 80       	ld	r12, Y
    1458:	c9 5c       	subi	r28, 0xC9	; 201
    145a:	d0 40       	sbci	r29, 0x00	; 0
    145c:	c6 53       	subi	r28, 0x36	; 54
    145e:	df 4f       	sbci	r29, 0xFF	; 255
    1460:	d8 80       	ld	r13, Y
    1462:	ca 5c       	subi	r28, 0xCA	; 202
    1464:	d0 40       	sbci	r29, 0x00	; 0
    1466:	c5 53       	subi	r28, 0x35	; 53
    1468:	df 4f       	sbci	r29, 0xFF	; 255
    146a:	e8 80       	ld	r14, Y
    146c:	cb 5c       	subi	r28, 0xCB	; 203
    146e:	d0 40       	sbci	r29, 0x00	; 0
    1470:	c4 53       	subi	r28, 0x34	; 52
    1472:	df 4f       	sbci	r29, 0xFF	; 255
    1474:	f8 80       	ld	r15, Y
    1476:	cc 5c       	subi	r28, 0xCC	; 204
    1478:	d0 40       	sbci	r29, 0x00	; 0
    147a:	c3 53       	subi	r28, 0x33	; 51
    147c:	df 4f       	sbci	r29, 0xFF	; 255
    147e:	08 81       	ld	r16, Y
    1480:	cd 5c       	subi	r28, 0xCD	; 205
    1482:	d0 40       	sbci	r29, 0x00	; 0
    1484:	c2 53       	subi	r28, 0x32	; 50
    1486:	df 4f       	sbci	r29, 0xFF	; 255
    1488:	18 81       	ld	r17, Y
    148a:	ce 5c       	subi	r28, 0xCE	; 206
    148c:	d0 40       	sbci	r29, 0x00	; 0
    148e:	c1 53       	subi	r28, 0x31	; 49
    1490:	df 4f       	sbci	r29, 0xFF	; 255
    1492:	28 81       	ld	r18, Y
    1494:	cf 5c       	subi	r28, 0xCF	; 207
    1496:	d0 40       	sbci	r29, 0x00	; 0
    1498:	c0 53       	subi	r28, 0x30	; 48
    149a:	df 4f       	sbci	r29, 0xFF	; 255
    149c:	38 81       	ld	r19, Y
    149e:	c0 5d       	subi	r28, 0xD0	; 208
    14a0:	d0 40       	sbci	r29, 0x00	; 0
    14a2:	cf 52       	subi	r28, 0x2F	; 47
    14a4:	df 4f       	sbci	r29, 0xFF	; 255
    14a6:	48 81       	ld	r20, Y
    14a8:	c1 5d       	subi	r28, 0xD1	; 209
    14aa:	d0 40       	sbci	r29, 0x00	; 0
    14ac:	ce 52       	subi	r28, 0x2E	; 46
    14ae:	df 4f       	sbci	r29, 0xFF	; 255
    14b0:	58 81       	ld	r21, Y
    14b2:	c2 5d       	subi	r28, 0xD2	; 210
    14b4:	d0 40       	sbci	r29, 0x00	; 0
    14b6:	cd 52       	subi	r28, 0x2D	; 45
    14b8:	df 4f       	sbci	r29, 0xFF	; 255
    14ba:	68 81       	ld	r22, Y
    14bc:	c3 5d       	subi	r28, 0xD3	; 211
    14be:	d0 40       	sbci	r29, 0x00	; 0
    14c0:	cc 52       	subi	r28, 0x2C	; 44
    14c2:	df 4f       	sbci	r29, 0xFF	; 255
    14c4:	78 81       	ld	r23, Y
    14c6:	c4 5d       	subi	r28, 0xD4	; 212
    14c8:	d0 40       	sbci	r29, 0x00	; 0
    14ca:	ce 01       	movw	r24, r28
    14cc:	88 57       	subi	r24, 0x78	; 120
    14ce:	9f 4f       	sbci	r25, 0xFF	; 255
    14d0:	0e 94 bb 05 	call	0xb76	; 0xb76 <_ZN13Interpolation16setInterpolationE5Pointf>
    14d4:	0f b6       	in	r0, 0x3f	; 63
    14d6:	f8 94       	cli
    14d8:	de bf       	out	0x3e, r29	; 62
    14da:	0f be       	out	0x3f, r0	; 63
    14dc:	cd bf       	out	0x3d, r28	; 61
    14de:	21 cf       	rjmp	.-446    	; 0x1322 <main+0x25c>

000014e0 <_Z9calcPoint5Pointdd>:
 */ 

#include "Point.h"

Point calcPoint(Point oldP, double a_ch, double hyp_ch)
{
    14e0:	2f 92       	push	r2
    14e2:	3f 92       	push	r3
    14e4:	4f 92       	push	r4
    14e6:	5f 92       	push	r5
    14e8:	6f 92       	push	r6
    14ea:	7f 92       	push	r7
    14ec:	8f 92       	push	r8
    14ee:	9f 92       	push	r9
    14f0:	af 92       	push	r10
    14f2:	bf 92       	push	r11
    14f4:	cf 92       	push	r12
    14f6:	df 92       	push	r13
    14f8:	ef 92       	push	r14
    14fa:	ff 92       	push	r15
    14fc:	0f 93       	push	r16
    14fe:	1f 93       	push	r17
    1500:	cf 93       	push	r28
    1502:	df 93       	push	r29
    1504:	cd b7       	in	r28, 0x3d	; 61
    1506:	de b7       	in	r29, 0x3e	; 62
    1508:	68 97       	sbiw	r28, 0x18	; 24
    150a:	0f b6       	in	r0, 0x3f	; 63
    150c:	f8 94       	cli
    150e:	de bf       	out	0x3e, r29	; 62
    1510:	0f be       	out	0x3f, r0	; 63
    1512:	cd bf       	out	0x3d, r28	; 61
    1514:	1c 01       	movw	r2, r24
    1516:	89 82       	std	Y+1, r8	; 0x01
    1518:	9a 82       	std	Y+2, r9	; 0x02
    151a:	ab 82       	std	Y+3, r10	; 0x03
    151c:	bc 82       	std	Y+4, r11	; 0x04
    151e:	cd 82       	std	Y+5, r12	; 0x05
    1520:	de 82       	std	Y+6, r13	; 0x06
    1522:	ef 82       	std	Y+7, r14	; 0x07
    1524:	f8 86       	std	Y+8, r15	; 0x08
    1526:	09 87       	std	Y+9, r16	; 0x09
    1528:	1a 87       	std	Y+10, r17	; 0x0a
    152a:	2b 87       	std	Y+11, r18	; 0x0b
    152c:	3c 87       	std	Y+12, r19	; 0x0c
    152e:	4d 87       	std	Y+13, r20	; 0x0d
    1530:	5e 87       	std	Y+14, r21	; 0x0e
    1532:	6f 87       	std	Y+15, r22	; 0x0f
    1534:	78 8b       	std	Y+16, r23	; 0x10
    1536:	c9 80       	ldd	r12, Y+1	; 0x01
    1538:	da 80       	ldd	r13, Y+2	; 0x02
    153a:	eb 80       	ldd	r14, Y+3	; 0x03
    153c:	fc 80       	ldd	r15, Y+4	; 0x04
    153e:	8d 80       	ldd	r8, Y+5	; 0x05
    1540:	9e 80       	ldd	r9, Y+6	; 0x06
    1542:	af 80       	ldd	r10, Y+7	; 0x07
    1544:	b8 84       	ldd	r11, Y+8	; 0x08
	double hyp_old = sqrt(pow(oldP.xmm_,2)+pow(oldP.ymm_,2));
    1546:	a5 01       	movw	r20, r10
    1548:	94 01       	movw	r18, r8
    154a:	c5 01       	movw	r24, r10
    154c:	b4 01       	movw	r22, r8
    154e:	0e 94 7b 0f 	call	0x1ef6	; 0x1ef6 <__mulsf3>
    1552:	2b 01       	movw	r4, r22
    1554:	3c 01       	movw	r6, r24
    1556:	a7 01       	movw	r20, r14
    1558:	96 01       	movw	r18, r12
    155a:	c7 01       	movw	r24, r14
    155c:	b6 01       	movw	r22, r12
    155e:	0e 94 7b 0f 	call	0x1ef6	; 0x1ef6 <__mulsf3>
    1562:	69 8b       	std	Y+17, r22	; 0x11
    1564:	7a 8b       	std	Y+18, r23	; 0x12
    1566:	8b 8b       	std	Y+19, r24	; 0x13
    1568:	9c 8b       	std	Y+20, r25	; 0x14
    156a:	29 89       	ldd	r18, Y+17	; 0x11
    156c:	3a 89       	ldd	r19, Y+18	; 0x12
    156e:	4b 89       	ldd	r20, Y+19	; 0x13
    1570:	5c 89       	ldd	r21, Y+20	; 0x14
    1572:	c3 01       	movw	r24, r6
    1574:	b2 01       	movw	r22, r4
    1576:	0e 94 f1 0c 	call	0x19e2	; 0x19e2 <__addsf3>
    157a:	0e 94 f6 0f 	call	0x1fec	; 0x1fec <sqrt>
    157e:	69 8b       	std	Y+17, r22	; 0x11
    1580:	7a 8b       	std	Y+18, r23	; 0x12
    1582:	8b 8b       	std	Y+19, r24	; 0x13
    1584:	9c 8b       	std	Y+20, r25	; 0x14
	double param = (oldP.ymm_/hyp_old);
    1586:	9b 01       	movw	r18, r22
    1588:	ac 01       	movw	r20, r24
    158a:	c5 01       	movw	r24, r10
    158c:	b4 01       	movw	r22, r8
    158e:	0e 94 82 0d 	call	0x1b04	; 0x1b04 <__divsf3>
    1592:	6d 8b       	std	Y+21, r22	; 0x15
    1594:	7e 8b       	std	Y+22, r23	; 0x16
    1596:	8f 8b       	std	Y+23, r24	; 0x17
    1598:	98 8f       	std	Y+24, r25	; 0x18
	double a_old = 0;
	if((oldP.xmm_>0 && oldP.ymm_>0) || (oldP.xmm_>0 && oldP.ymm_<0)) // 1. quadrant or 2. quadrant
    159a:	20 e0       	ldi	r18, 0x00	; 0
    159c:	30 e0       	ldi	r19, 0x00	; 0
    159e:	a9 01       	movw	r20, r18
    15a0:	c7 01       	movw	r24, r14
    15a2:	b6 01       	movw	r22, r12
    15a4:	0e 94 76 0f 	call	0x1eec	; 0x1eec <__gesf2>
    15a8:	18 16       	cp	r1, r24
    15aa:	dc f4       	brge	.+54     	; 0x15e2 <_Z9calcPoint5Pointdd+0x102>
    15ac:	20 e0       	ldi	r18, 0x00	; 0
    15ae:	30 e0       	ldi	r19, 0x00	; 0
    15b0:	a9 01       	movw	r20, r18
    15b2:	c5 01       	movw	r24, r10
    15b4:	b4 01       	movw	r22, r8
    15b6:	0e 94 76 0f 	call	0x1eec	; 0x1eec <__gesf2>
    15ba:	18 16       	cp	r1, r24
    15bc:	4c f0       	brlt	.+18     	; 0x15d0 <_Z9calcPoint5Pointdd+0xf0>
    15be:	20 e0       	ldi	r18, 0x00	; 0
    15c0:	30 e0       	ldi	r19, 0x00	; 0
    15c2:	a9 01       	movw	r20, r18
    15c4:	c5 01       	movw	r24, r10
    15c6:	b4 01       	movw	r22, r8
    15c8:	0e 94 78 0d 	call	0x1af0	; 0x1af0 <__cmpsf2>
    15cc:	88 23       	and	r24, r24
    15ce:	6c f4       	brge	.+26     	; 0x15ea <_Z9calcPoint5Pointdd+0x10a>
	{
		a_old = acos(param);
    15d0:	6d 89       	ldd	r22, Y+21	; 0x15
    15d2:	7e 89       	ldd	r23, Y+22	; 0x16
    15d4:	8f 89       	ldd	r24, Y+23	; 0x17
    15d6:	98 8d       	ldd	r25, Y+24	; 0x18
    15d8:	0e 94 df 0c 	call	0x19be	; 0x19be <acos>
    15dc:	2b 01       	movw	r4, r22
    15de:	3c 01       	movw	r6, r24
    15e0:	07 c0       	rjmp	.+14     	; 0x15f0 <_Z9calcPoint5Pointdd+0x110>

Point calcPoint(Point oldP, double a_ch, double hyp_ch)
{
	double hyp_old = sqrt(pow(oldP.xmm_,2)+pow(oldP.ymm_,2));
	double param = (oldP.ymm_/hyp_old);
	double a_old = 0;
    15e2:	41 2c       	mov	r4, r1
    15e4:	51 2c       	mov	r5, r1
    15e6:	32 01       	movw	r6, r4
    15e8:	03 c0       	rjmp	.+6      	; 0x15f0 <_Z9calcPoint5Pointdd+0x110>
    15ea:	41 2c       	mov	r4, r1
    15ec:	51 2c       	mov	r5, r1
    15ee:	32 01       	movw	r6, r4
	if((oldP.xmm_>0 && oldP.ymm_>0) || (oldP.xmm_>0 && oldP.ymm_<0)) // 1. quadrant or 2. quadrant
	{
		a_old = acos(param);
	}

	if((oldP.xmm_<0 && oldP.ymm_<0) || (oldP.xmm_<0 && oldP.ymm_>0)) // 3. quadrant or 4. quadrant
    15f0:	20 e0       	ldi	r18, 0x00	; 0
    15f2:	30 e0       	ldi	r19, 0x00	; 0
    15f4:	a9 01       	movw	r20, r18
    15f6:	c7 01       	movw	r24, r14
    15f8:	b6 01       	movw	r22, r12
    15fa:	0e 94 78 0d 	call	0x1af0	; 0x1af0 <__cmpsf2>
    15fe:	88 23       	and	r24, r24
    1600:	14 f5       	brge	.+68     	; 0x1646 <_Z9calcPoint5Pointdd+0x166>
    1602:	20 e0       	ldi	r18, 0x00	; 0
    1604:	30 e0       	ldi	r19, 0x00	; 0
    1606:	a9 01       	movw	r20, r18
    1608:	c5 01       	movw	r24, r10
    160a:	b4 01       	movw	r22, r8
    160c:	0e 94 78 0d 	call	0x1af0	; 0x1af0 <__cmpsf2>
    1610:	88 23       	and	r24, r24
    1612:	4c f0       	brlt	.+18     	; 0x1626 <_Z9calcPoint5Pointdd+0x146>
    1614:	20 e0       	ldi	r18, 0x00	; 0
    1616:	30 e0       	ldi	r19, 0x00	; 0
    1618:	a9 01       	movw	r20, r18
    161a:	c5 01       	movw	r24, r10
    161c:	b4 01       	movw	r22, r8
    161e:	0e 94 76 0f 	call	0x1eec	; 0x1eec <__gesf2>
    1622:	18 16       	cp	r1, r24
    1624:	84 f4       	brge	.+32     	; 0x1646 <_Z9calcPoint5Pointdd+0x166>
	{
		a_old = -acos(param)+2.0*PI;
    1626:	6d 89       	ldd	r22, Y+21	; 0x15
    1628:	7e 89       	ldd	r23, Y+22	; 0x16
    162a:	8f 89       	ldd	r24, Y+23	; 0x17
    162c:	98 8d       	ldd	r25, Y+24	; 0x18
    162e:	0e 94 df 0c 	call	0x19be	; 0x19be <acos>
    1632:	9b 01       	movw	r18, r22
    1634:	ac 01       	movw	r20, r24
    1636:	6b ed       	ldi	r22, 0xDB	; 219
    1638:	7f e0       	ldi	r23, 0x0F	; 15
    163a:	89 ec       	ldi	r24, 0xC9	; 201
    163c:	90 e4       	ldi	r25, 0x40	; 64
    163e:	0e 94 f0 0c 	call	0x19e0	; 0x19e0 <__subsf3>
    1642:	2b 01       	movw	r4, r22
    1644:	3c 01       	movw	r6, r24

	}
	// Cases with x or y equals zero
	if(oldP.xmm_==0 && oldP.ymm_>0)
    1646:	20 e0       	ldi	r18, 0x00	; 0
    1648:	30 e0       	ldi	r19, 0x00	; 0
    164a:	a9 01       	movw	r20, r18
    164c:	c7 01       	movw	r24, r14
    164e:	b6 01       	movw	r22, r12
    1650:	0e 94 78 0d 	call	0x1af0	; 0x1af0 <__cmpsf2>
    1654:	81 11       	cpse	r24, r1
    1656:	0d c0       	rjmp	.+26     	; 0x1672 <_Z9calcPoint5Pointdd+0x192>
    1658:	20 e0       	ldi	r18, 0x00	; 0
    165a:	30 e0       	ldi	r19, 0x00	; 0
    165c:	a9 01       	movw	r20, r18
    165e:	c5 01       	movw	r24, r10
    1660:	b4 01       	movw	r22, r8
    1662:	0e 94 76 0f 	call	0x1eec	; 0x1eec <__gesf2>
    1666:	18 16       	cp	r1, r24
    1668:	ec f5       	brge	.+122    	; 0x16e4 <_Z9calcPoint5Pointdd+0x204>
	{
		a_old = 0; //Radians
    166a:	41 2c       	mov	r4, r1
    166c:	51 2c       	mov	r5, r1
    166e:	32 01       	movw	r6, r4
    1670:	39 c0       	rjmp	.+114    	; 0x16e4 <_Z9calcPoint5Pointdd+0x204>
	}
	if(oldP.xmm_==0 && oldP.ymm_<0)
	{
		a_old = PI; //Radians
	}
	if(oldP.xmm_>0 && oldP.ymm_==0)
    1672:	20 e0       	ldi	r18, 0x00	; 0
    1674:	30 e0       	ldi	r19, 0x00	; 0
    1676:	a9 01       	movw	r20, r18
    1678:	c7 01       	movw	r24, r14
    167a:	b6 01       	movw	r22, r12
    167c:	0e 94 76 0f 	call	0x1eec	; 0x1eec <__gesf2>
    1680:	18 16       	cp	r1, r24
    1682:	9c f4       	brge	.+38     	; 0x16aa <_Z9calcPoint5Pointdd+0x1ca>
    1684:	20 e0       	ldi	r18, 0x00	; 0
    1686:	30 e0       	ldi	r19, 0x00	; 0
    1688:	a9 01       	movw	r20, r18
    168a:	c5 01       	movw	r24, r10
    168c:	b4 01       	movw	r22, r8
    168e:	0e 94 78 0d 	call	0x1af0	; 0x1af0 <__cmpsf2>
    1692:	81 11       	cpse	r24, r1
    1694:	3c c0       	rjmp	.+120    	; 0x170e <_Z9calcPoint5Pointdd+0x22e>
	{
		a_old = PI/2; //Radians
    1696:	0f 2e       	mov	r0, r31
    1698:	fb ed       	ldi	r31, 0xDB	; 219
    169a:	4f 2e       	mov	r4, r31
    169c:	ff e0       	ldi	r31, 0x0F	; 15
    169e:	5f 2e       	mov	r5, r31
    16a0:	f9 ec       	ldi	r31, 0xC9	; 201
    16a2:	6f 2e       	mov	r6, r31
    16a4:	ff e3       	ldi	r31, 0x3F	; 63
    16a6:	7f 2e       	mov	r7, r31
    16a8:	f0 2d       	mov	r31, r0
	}
	if(oldP.xmm_<0 && oldP.ymm_==0)
    16aa:	20 e0       	ldi	r18, 0x00	; 0
    16ac:	30 e0       	ldi	r19, 0x00	; 0
    16ae:	a9 01       	movw	r20, r18
    16b0:	c7 01       	movw	r24, r14
    16b2:	b6 01       	movw	r22, r12
    16b4:	0e 94 78 0d 	call	0x1af0	; 0x1af0 <__cmpsf2>
    16b8:	88 23       	and	r24, r24
    16ba:	4c f5       	brge	.+82     	; 0x170e <_Z9calcPoint5Pointdd+0x22e>
    16bc:	20 e0       	ldi	r18, 0x00	; 0
    16be:	30 e0       	ldi	r19, 0x00	; 0
    16c0:	a9 01       	movw	r20, r18
    16c2:	c5 01       	movw	r24, r10
    16c4:	b4 01       	movw	r22, r8
    16c6:	0e 94 78 0d 	call	0x1af0	; 0x1af0 <__cmpsf2>
    16ca:	81 11       	cpse	r24, r1
    16cc:	20 c0       	rjmp	.+64     	; 0x170e <_Z9calcPoint5Pointdd+0x22e>
	{
		a_old = 3.0*PI/2.0; //Radians
    16ce:	0f 2e       	mov	r0, r31
    16d0:	f4 ee       	ldi	r31, 0xE4	; 228
    16d2:	4f 2e       	mov	r4, r31
    16d4:	fb ec       	ldi	r31, 0xCB	; 203
    16d6:	5f 2e       	mov	r5, r31
    16d8:	f6 e9       	ldi	r31, 0x96	; 150
    16da:	6f 2e       	mov	r6, r31
    16dc:	f0 e4       	ldi	r31, 0x40	; 64
    16de:	7f 2e       	mov	r7, r31
    16e0:	f0 2d       	mov	r31, r0
    16e2:	15 c0       	rjmp	.+42     	; 0x170e <_Z9calcPoint5Pointdd+0x22e>
	// Cases with x or y equals zero
	if(oldP.xmm_==0 && oldP.ymm_>0)
	{
		a_old = 0; //Radians
	}
	if(oldP.xmm_==0 && oldP.ymm_<0)
    16e4:	20 e0       	ldi	r18, 0x00	; 0
    16e6:	30 e0       	ldi	r19, 0x00	; 0
    16e8:	a9 01       	movw	r20, r18
    16ea:	c5 01       	movw	r24, r10
    16ec:	b4 01       	movw	r22, r8
    16ee:	0e 94 78 0d 	call	0x1af0	; 0x1af0 <__cmpsf2>
    16f2:	88 23       	and	r24, r24
    16f4:	0c f0       	brlt	.+2      	; 0x16f8 <_Z9calcPoint5Pointdd+0x218>
    16f6:	bd cf       	rjmp	.-134    	; 0x1672 <_Z9calcPoint5Pointdd+0x192>
	{
		a_old = PI; //Radians
    16f8:	0f 2e       	mov	r0, r31
    16fa:	fb ed       	ldi	r31, 0xDB	; 219
    16fc:	4f 2e       	mov	r4, r31
    16fe:	ff e0       	ldi	r31, 0x0F	; 15
    1700:	5f 2e       	mov	r5, r31
    1702:	f9 e4       	ldi	r31, 0x49	; 73
    1704:	6f 2e       	mov	r6, r31
    1706:	f0 e4       	ldi	r31, 0x40	; 64
    1708:	7f 2e       	mov	r7, r31
    170a:	f0 2d       	mov	r31, r0
    170c:	b2 cf       	rjmp	.-156    	; 0x1672 <_Z9calcPoint5Pointdd+0x192>
	}
	if(oldP.xmm_<0 && oldP.ymm_==0)
	{
		a_old = 3.0*PI/2.0; //Radians
	}
	double a_new = a_old + (((a_ch)/180.0))*PI;
    170e:	20 e0       	ldi	r18, 0x00	; 0
    1710:	30 e0       	ldi	r19, 0x00	; 0
    1712:	44 e3       	ldi	r20, 0x34	; 52
    1714:	53 e4       	ldi	r21, 0x43	; 67
    1716:	6d a5       	ldd	r22, Y+45	; 0x2d
    1718:	7e a5       	ldd	r23, Y+46	; 0x2e
    171a:	8f a5       	ldd	r24, Y+47	; 0x2f
    171c:	98 a9       	ldd	r25, Y+48	; 0x30
    171e:	0e 94 82 0d 	call	0x1b04	; 0x1b04 <__divsf3>
    1722:	2b ed       	ldi	r18, 0xDB	; 219
    1724:	3f e0       	ldi	r19, 0x0F	; 15
    1726:	49 e4       	ldi	r20, 0x49	; 73
    1728:	50 e4       	ldi	r21, 0x40	; 64
    172a:	0e 94 7b 0f 	call	0x1ef6	; 0x1ef6 <__mulsf3>
    172e:	a3 01       	movw	r20, r6
    1730:	92 01       	movw	r18, r4
    1732:	0e 94 f1 0c 	call	0x19e2	; 0x19e2 <__addsf3>
    1736:	6b 01       	movw	r12, r22
    1738:	7c 01       	movw	r14, r24
	

	Point result;
	result.xmm_ = sin(a_new)*(hyp_old + hyp_ch);
    173a:	0e 94 e8 0f 	call	0x1fd0	; 0x1fd0 <sin>
    173e:	4b 01       	movw	r8, r22
    1740:	5c 01       	movw	r10, r24
    1742:	29 a9       	ldd	r18, Y+49	; 0x31
    1744:	3a a9       	ldd	r19, Y+50	; 0x32
    1746:	4b a9       	ldd	r20, Y+51	; 0x33
    1748:	5c a9       	ldd	r21, Y+52	; 0x34
    174a:	69 89       	ldd	r22, Y+17	; 0x11
    174c:	7a 89       	ldd	r23, Y+18	; 0x12
    174e:	8b 89       	ldd	r24, Y+19	; 0x13
    1750:	9c 89       	ldd	r25, Y+20	; 0x14
    1752:	0e 94 f1 0c 	call	0x19e2	; 0x19e2 <__addsf3>
    1756:	2b 01       	movw	r4, r22
    1758:	3c 01       	movw	r6, r24
    175a:	9b 01       	movw	r18, r22
    175c:	ac 01       	movw	r20, r24
    175e:	c5 01       	movw	r24, r10
    1760:	b4 01       	movw	r22, r8
    1762:	0e 94 7b 0f 	call	0x1ef6	; 0x1ef6 <__mulsf3>
    1766:	f1 01       	movw	r30, r2
    1768:	60 83       	st	Z, r22
    176a:	71 83       	std	Z+1, r23	; 0x01
    176c:	82 83       	std	Z+2, r24	; 0x02
    176e:	93 83       	std	Z+3, r25	; 0x03
	result.ymm_ = cos(a_new)*(hyp_old + hyp_ch);
    1770:	c7 01       	movw	r24, r14
    1772:	b6 01       	movw	r22, r12
    1774:	0e 94 7d 0d 	call	0x1afa	; 0x1afa <cos>
    1778:	9b 01       	movw	r18, r22
    177a:	ac 01       	movw	r20, r24
    177c:	c3 01       	movw	r24, r6
    177e:	b2 01       	movw	r22, r4
    1780:	0e 94 7b 0f 	call	0x1ef6	; 0x1ef6 <__mulsf3>
    1784:	f1 01       	movw	r30, r2
    1786:	64 83       	std	Z+4, r22	; 0x04
    1788:	75 83       	std	Z+5, r23	; 0x05
    178a:	86 83       	std	Z+6, r24	; 0x06
    178c:	97 83       	std	Z+7, r25	; 0x07
	result.zmm_ = oldP.zmm_;
    178e:	89 85       	ldd	r24, Y+9	; 0x09
    1790:	9a 85       	ldd	r25, Y+10	; 0x0a
    1792:	ab 85       	ldd	r26, Y+11	; 0x0b
    1794:	bc 85       	ldd	r27, Y+12	; 0x0c
    1796:	80 87       	std	Z+8, r24	; 0x08
    1798:	91 87       	std	Z+9, r25	; 0x09
    179a:	a2 87       	std	Z+10, r26	; 0x0a
    179c:	b3 87       	std	Z+11, r27	; 0x0b
	result.emm_ = oldP.emm_;
    179e:	8d 85       	ldd	r24, Y+13	; 0x0d
    17a0:	9e 85       	ldd	r25, Y+14	; 0x0e
    17a2:	af 85       	ldd	r26, Y+15	; 0x0f
    17a4:	b8 89       	ldd	r27, Y+16	; 0x10
    17a6:	84 87       	std	Z+12, r24	; 0x0c
    17a8:	95 87       	std	Z+13, r25	; 0x0d
    17aa:	a6 87       	std	Z+14, r26	; 0x0e
    17ac:	b7 87       	std	Z+15, r27	; 0x0f
	return result;
}
    17ae:	c1 01       	movw	r24, r2
    17b0:	68 96       	adiw	r28, 0x18	; 24
    17b2:	0f b6       	in	r0, 0x3f	; 63
    17b4:	f8 94       	cli
    17b6:	de bf       	out	0x3e, r29	; 62
    17b8:	0f be       	out	0x3f, r0	; 63
    17ba:	cd bf       	out	0x3d, r28	; 61
    17bc:	df 91       	pop	r29
    17be:	cf 91       	pop	r28
    17c0:	1f 91       	pop	r17
    17c2:	0f 91       	pop	r16
    17c4:	ff 90       	pop	r15
    17c6:	ef 90       	pop	r14
    17c8:	df 90       	pop	r13
    17ca:	cf 90       	pop	r12
    17cc:	bf 90       	pop	r11
    17ce:	af 90       	pop	r10
    17d0:	9f 90       	pop	r9
    17d2:	8f 90       	pop	r8
    17d4:	7f 90       	pop	r7
    17d6:	6f 90       	pop	r6
    17d8:	5f 90       	pop	r5
    17da:	4f 90       	pop	r4
    17dc:	3f 90       	pop	r3
    17de:	2f 90       	pop	r2
    17e0:	08 95       	ret

000017e2 <_Z9addPoints5PointS_>:

Point addPoints(Point p1, Point p2)
{
    17e2:	6f 92       	push	r6
    17e4:	7f 92       	push	r7
    17e6:	8f 92       	push	r8
    17e8:	9f 92       	push	r9
    17ea:	af 92       	push	r10
    17ec:	bf 92       	push	r11
    17ee:	cf 92       	push	r12
    17f0:	df 92       	push	r13
    17f2:	ef 92       	push	r14
    17f4:	ff 92       	push	r15
    17f6:	0f 93       	push	r16
    17f8:	1f 93       	push	r17
    17fa:	cf 93       	push	r28
    17fc:	df 93       	push	r29
    17fe:	cd b7       	in	r28, 0x3d	; 61
    1800:	de b7       	in	r29, 0x3e	; 62
    1802:	60 97       	sbiw	r28, 0x10	; 16
    1804:	0f b6       	in	r0, 0x3f	; 63
    1806:	f8 94       	cli
    1808:	de bf       	out	0x3e, r29	; 62
    180a:	0f be       	out	0x3f, r0	; 63
    180c:	cd bf       	out	0x3d, r28	; 61
    180e:	3c 01       	movw	r6, r24
    1810:	89 82       	std	Y+1, r8	; 0x01
    1812:	9a 82       	std	Y+2, r9	; 0x02
    1814:	ab 82       	std	Y+3, r10	; 0x03
    1816:	bc 82       	std	Y+4, r11	; 0x04
    1818:	cd 82       	std	Y+5, r12	; 0x05
    181a:	de 82       	std	Y+6, r13	; 0x06
    181c:	ef 82       	std	Y+7, r14	; 0x07
    181e:	f8 86       	std	Y+8, r15	; 0x08
    1820:	09 87       	std	Y+9, r16	; 0x09
    1822:	1a 87       	std	Y+10, r17	; 0x0a
    1824:	2b 87       	std	Y+11, r18	; 0x0b
    1826:	3c 87       	std	Y+12, r19	; 0x0c
    1828:	4d 87       	std	Y+13, r20	; 0x0d
    182a:	5e 87       	std	Y+14, r21	; 0x0e
    182c:	6f 87       	std	Y+15, r22	; 0x0f
    182e:	78 8b       	std	Y+16, r23	; 0x10
	Point result;
	result.emm_ = p1.emm_ + p2.emm_;
    1830:	2d a5       	ldd	r18, Y+45	; 0x2d
    1832:	3e a5       	ldd	r19, Y+46	; 0x2e
    1834:	4f a5       	ldd	r20, Y+47	; 0x2f
    1836:	58 a9       	ldd	r21, Y+48	; 0x30
    1838:	6d 85       	ldd	r22, Y+13	; 0x0d
    183a:	7e 85       	ldd	r23, Y+14	; 0x0e
    183c:	8f 85       	ldd	r24, Y+15	; 0x0f
    183e:	98 89       	ldd	r25, Y+16	; 0x10
    1840:	0e 94 f1 0c 	call	0x19e2	; 0x19e2 <__addsf3>
    1844:	f3 01       	movw	r30, r6
    1846:	64 87       	std	Z+12, r22	; 0x0c
    1848:	75 87       	std	Z+13, r23	; 0x0d
    184a:	86 87       	std	Z+14, r24	; 0x0e
    184c:	97 87       	std	Z+15, r25	; 0x0f
	result.xmm_ = p1.xmm_ + p2.xmm_;
    184e:	29 a1       	ldd	r18, Y+33	; 0x21
    1850:	3a a1       	ldd	r19, Y+34	; 0x22
    1852:	4b a1       	ldd	r20, Y+35	; 0x23
    1854:	5c a1       	ldd	r21, Y+36	; 0x24
    1856:	69 81       	ldd	r22, Y+1	; 0x01
    1858:	7a 81       	ldd	r23, Y+2	; 0x02
    185a:	8b 81       	ldd	r24, Y+3	; 0x03
    185c:	9c 81       	ldd	r25, Y+4	; 0x04
    185e:	0e 94 f1 0c 	call	0x19e2	; 0x19e2 <__addsf3>
    1862:	f3 01       	movw	r30, r6
    1864:	60 83       	st	Z, r22
    1866:	71 83       	std	Z+1, r23	; 0x01
    1868:	82 83       	std	Z+2, r24	; 0x02
    186a:	93 83       	std	Z+3, r25	; 0x03
	result.ymm_ = p1.ymm_ + p2.ymm_;
    186c:	2d a1       	ldd	r18, Y+37	; 0x25
    186e:	3e a1       	ldd	r19, Y+38	; 0x26
    1870:	4f a1       	ldd	r20, Y+39	; 0x27
    1872:	58 a5       	ldd	r21, Y+40	; 0x28
    1874:	6d 81       	ldd	r22, Y+5	; 0x05
    1876:	7e 81       	ldd	r23, Y+6	; 0x06
    1878:	8f 81       	ldd	r24, Y+7	; 0x07
    187a:	98 85       	ldd	r25, Y+8	; 0x08
    187c:	0e 94 f1 0c 	call	0x19e2	; 0x19e2 <__addsf3>
    1880:	f3 01       	movw	r30, r6
    1882:	64 83       	std	Z+4, r22	; 0x04
    1884:	75 83       	std	Z+5, r23	; 0x05
    1886:	86 83       	std	Z+6, r24	; 0x06
    1888:	97 83       	std	Z+7, r25	; 0x07
	result.zmm_ = p1.zmm_ + p2.zmm_;
    188a:	29 a5       	ldd	r18, Y+41	; 0x29
    188c:	3a a5       	ldd	r19, Y+42	; 0x2a
    188e:	4b a5       	ldd	r20, Y+43	; 0x2b
    1890:	5c a5       	ldd	r21, Y+44	; 0x2c
    1892:	69 85       	ldd	r22, Y+9	; 0x09
    1894:	7a 85       	ldd	r23, Y+10	; 0x0a
    1896:	8b 85       	ldd	r24, Y+11	; 0x0b
    1898:	9c 85       	ldd	r25, Y+12	; 0x0c
    189a:	0e 94 f1 0c 	call	0x19e2	; 0x19e2 <__addsf3>
    189e:	f3 01       	movw	r30, r6
    18a0:	60 87       	std	Z+8, r22	; 0x08
    18a2:	71 87       	std	Z+9, r23	; 0x09
    18a4:	82 87       	std	Z+10, r24	; 0x0a
    18a6:	93 87       	std	Z+11, r25	; 0x0b
	
	return result;
    18a8:	c3 01       	movw	r24, r6
    18aa:	60 96       	adiw	r28, 0x10	; 16
    18ac:	0f b6       	in	r0, 0x3f	; 63
    18ae:	f8 94       	cli
    18b0:	de bf       	out	0x3e, r29	; 62
    18b2:	0f be       	out	0x3f, r0	; 63
    18b4:	cd bf       	out	0x3d, r28	; 61
    18b6:	df 91       	pop	r29
    18b8:	cf 91       	pop	r28
    18ba:	1f 91       	pop	r17
    18bc:	0f 91       	pop	r16
    18be:	ff 90       	pop	r15
    18c0:	ef 90       	pop	r14
    18c2:	df 90       	pop	r13
    18c4:	cf 90       	pop	r12
    18c6:	bf 90       	pop	r11
    18c8:	af 90       	pop	r10
    18ca:	9f 90       	pop	r9
    18cc:	8f 90       	pop	r8
    18ce:	7f 90       	pop	r7
    18d0:	6f 90       	pop	r6
    18d2:	08 95       	ret

000018d4 <_Z8InitUARTjmhc>:
  Returns value <> 0 (TRUE), if the UART HAS received a new character.
*************************************************************************/
unsigned char CharReady(unsigned int UART_adr)
{
   return UCSRnA & (1<<7);
}
    18d4:	0f 93       	push	r16
    18d6:	cf 93       	push	r28
    18d8:	df 93       	push	r29
    18da:	ec 01       	movw	r28, r24
    18dc:	db 01       	movw	r26, r22
    18de:	ca 01       	movw	r24, r20
    18e0:	8c 52       	subi	r24, 0x2C	; 44
    18e2:	91 40       	sbci	r25, 0x01	; 1
    18e4:	a1 09       	sbc	r26, r1
    18e6:	b1 09       	sbc	r27, r1
    18e8:	85 3d       	cpi	r24, 0xD5	; 213
    18ea:	90 4c       	sbci	r25, 0xC0	; 192
    18ec:	a1 40       	sbci	r26, 0x01	; 1
    18ee:	b1 05       	cpc	r27, r1
    18f0:	08 f0       	brcs	.+2      	; 0x18f4 <_Z8InitUARTjmhc+0x20>
    18f2:	40 c0       	rjmp	.+128    	; 0x1974 <_Z8InitUARTjmhc+0xa0>
    18f4:	25 50       	subi	r18, 0x05	; 5
    18f6:	24 30       	cpi	r18, 0x04	; 4
    18f8:	e8 f5       	brcc	.+122    	; 0x1974 <_Z8InitUARTjmhc+0xa0>
    18fa:	80 e2       	ldi	r24, 0x20	; 32
    18fc:	88 83       	st	Y, r24
    18fe:	88 e1       	ldi	r24, 0x18	; 24
    1900:	89 83       	std	Y+1, r24	; 0x01
    1902:	22 0f       	add	r18, r18
    1904:	2a 83       	std	Y+2, r18	; 0x02
    1906:	05 34       	cpi	r16, 0x45	; 69
    1908:	21 f4       	brne	.+8      	; 0x1912 <_Z8InitUARTjmhc+0x3e>
    190a:	8a 81       	ldd	r24, Y+2	; 0x02
    190c:	80 62       	ori	r24, 0x20	; 32
    190e:	8a 83       	std	Y+2, r24	; 0x02
    1910:	05 c0       	rjmp	.+10     	; 0x191c <_Z8InitUARTjmhc+0x48>
    1912:	0f 34       	cpi	r16, 0x4F	; 79
    1914:	19 f4       	brne	.+6      	; 0x191c <_Z8InitUARTjmhc+0x48>
    1916:	8a 81       	ldd	r24, Y+2	; 0x02
    1918:	80 63       	ori	r24, 0x30	; 48
    191a:	8a 83       	std	Y+2, r24	; 0x02
    191c:	db 01       	movw	r26, r22
    191e:	ca 01       	movw	r24, r20
    1920:	80 58       	subi	r24, 0x80	; 128
    1922:	9b 47       	sbci	r25, 0x7B	; 123
    1924:	a1 4e       	sbci	r26, 0xE1	; 225
    1926:	bf 4f       	sbci	r27, 0xFF	; 255
    1928:	88 0f       	add	r24, r24
    192a:	99 1f       	adc	r25, r25
    192c:	aa 1f       	adc	r26, r26
    192e:	bb 1f       	adc	r27, r27
    1930:	88 0f       	add	r24, r24
    1932:	99 1f       	adc	r25, r25
    1934:	aa 1f       	adc	r26, r26
    1936:	bb 1f       	adc	r27, r27
    1938:	88 0f       	add	r24, r24
    193a:	99 1f       	adc	r25, r25
    193c:	aa 1f       	adc	r26, r26
    193e:	bb 1f       	adc	r27, r27
    1940:	44 0f       	add	r20, r20
    1942:	55 1f       	adc	r21, r21
    1944:	66 1f       	adc	r22, r22
    1946:	77 1f       	adc	r23, r23
    1948:	44 0f       	add	r20, r20
    194a:	55 1f       	adc	r21, r21
    194c:	66 1f       	adc	r22, r22
    194e:	77 1f       	adc	r23, r23
    1950:	9a 01       	movw	r18, r20
    1952:	ab 01       	movw	r20, r22
    1954:	22 0f       	add	r18, r18
    1956:	33 1f       	adc	r19, r19
    1958:	44 1f       	adc	r20, r20
    195a:	55 1f       	adc	r21, r21
    195c:	22 0f       	add	r18, r18
    195e:	33 1f       	adc	r19, r19
    1960:	44 1f       	adc	r20, r20
    1962:	55 1f       	adc	r21, r21
    1964:	bc 01       	movw	r22, r24
    1966:	cd 01       	movw	r24, r26
    1968:	0e 94 4b 10 	call	0x2096	; 0x2096 <__udivmodsi4>
    196c:	21 50       	subi	r18, 0x01	; 1
    196e:	31 09       	sbc	r19, r1
    1970:	3d 83       	std	Y+5, r19	; 0x05
    1972:	2c 83       	std	Y+4, r18	; 0x04
    1974:	df 91       	pop	r29
    1976:	cf 91       	pop	r28
    1978:	0f 91       	pop	r16
    197a:	08 95       	ret

0000197c <_Z8ReadCharj>:
/*************************************************************************
Awaits new character received.
Then this character is returned.
*************************************************************************/
char ReadChar(unsigned int UART_adr)
{
    197c:	fc 01       	movw	r30, r24
  // Wait for new character received
  while ( (UCSRnA & (1<<7)) == 0 )
    197e:	90 81       	ld	r25, Z
    1980:	99 23       	and	r25, r25
    1982:	ec f7       	brge	.-6      	; 0x197e <_Z8ReadCharj+0x2>
  {}                        
  // Then return it
  return UDRn;
    1984:	86 81       	ldd	r24, Z+6	; 0x06
}
    1986:	08 95       	ret

00001988 <_Z8SendCharjc>:
Then send the character.
Parameter :
	Tegn : Character for sending. 
*************************************************************************/
void SendChar(unsigned int UART_adr, char Tegn)
{
    1988:	fc 01       	movw	r30, r24
  // Wait for transmitter register empty (ready for new character)
  while ( (UCSRnA & (1<<5)) == 0 )
    198a:	90 81       	ld	r25, Z
    198c:	95 ff       	sbrs	r25, 5
    198e:	fd cf       	rjmp	.-6      	; 0x198a <_Z8SendCharjc+0x2>
  {}
  // Then send the character
  UDRn = Tegn;
    1990:	66 83       	std	Z+6, r22	; 0x06
    1992:	08 95       	ret

00001994 <_Z10SendStringjPKc>:
Sends 0 terminated string.
Parameter:
   Streng: Pointer to the string. 
*************************************************************************/
void SendString(unsigned int UART_adr, const char* Streng)
{
    1994:	0f 93       	push	r16
    1996:	1f 93       	push	r17
    1998:	cf 93       	push	r28
    199a:	df 93       	push	r29
    199c:	eb 01       	movw	r28, r22
  // Repeat until zero-termination
  while (*Streng != 0)
    199e:	68 81       	ld	r22, Y
    19a0:	66 23       	and	r22, r22
    19a2:	41 f0       	breq	.+16     	; 0x19b4 <_Z10SendStringjPKc+0x20>
    19a4:	8c 01       	movw	r16, r24
    19a6:	21 96       	adiw	r28, 0x01	; 1
  {
    // Send the character pointed to by "Streng"
    SendChar(UART_adr, *Streng);
    19a8:	c8 01       	movw	r24, r16
    19aa:	0e 94 c4 0c 	call	0x1988	; 0x1988 <_Z8SendCharjc>
   Streng: Pointer to the string. 
*************************************************************************/
void SendString(unsigned int UART_adr, const char* Streng)
{
  // Repeat until zero-termination
  while (*Streng != 0)
    19ae:	69 91       	ld	r22, Y+
    19b0:	61 11       	cpse	r22, r1
    19b2:	fa cf       	rjmp	.-12     	; 0x19a8 <_Z10SendStringjPKc+0x14>
    // Send the character pointed to by "Streng"
    SendChar(UART_adr, *Streng);
    // Advance the pointer one step
    Streng++;
  }
}
    19b4:	df 91       	pop	r29
    19b6:	cf 91       	pop	r28
    19b8:	1f 91       	pop	r17
    19ba:	0f 91       	pop	r16
    19bc:	08 95       	ret

000019be <acos>:
    19be:	9f 93       	push	r25
    19c0:	9f 77       	andi	r25, 0x7F	; 127
    19c2:	0e 94 67 0e 	call	0x1cce	; 0x1cce <__fp_arccos>
    19c6:	0f 90       	pop	r0
    19c8:	00 20       	and	r0, r0
    19ca:	42 f4       	brpl	.+16     	; 0x19dc <acos+0x1e>
    19cc:	90 58       	subi	r25, 0x80	; 128
    19ce:	a2 ea       	ldi	r26, 0xA2	; 162
    19d0:	2a ed       	ldi	r18, 0xDA	; 218
    19d2:	3f e0       	ldi	r19, 0x0F	; 15
    19d4:	49 e4       	ldi	r20, 0x49	; 73
    19d6:	50 e4       	ldi	r21, 0x40	; 64
    19d8:	0e 94 08 0d 	call	0x1a10	; 0x1a10 <__addsf3x>
    19dc:	0c 94 28 0f 	jmp	0x1e50	; 0x1e50 <__fp_round>

000019e0 <__subsf3>:
    19e0:	50 58       	subi	r21, 0x80	; 128

000019e2 <__addsf3>:
    19e2:	bb 27       	eor	r27, r27
    19e4:	aa 27       	eor	r26, r26
    19e6:	0e 94 08 0d 	call	0x1a10	; 0x1a10 <__addsf3x>
    19ea:	0c 94 28 0f 	jmp	0x1e50	; 0x1e50 <__fp_round>
    19ee:	0e 94 ef 0e 	call	0x1dde	; 0x1dde <__fp_pscA>
    19f2:	38 f0       	brcs	.+14     	; 0x1a02 <__addsf3+0x20>
    19f4:	0e 94 f6 0e 	call	0x1dec	; 0x1dec <__fp_pscB>
    19f8:	20 f0       	brcs	.+8      	; 0x1a02 <__addsf3+0x20>
    19fa:	39 f4       	brne	.+14     	; 0x1a0a <__addsf3+0x28>
    19fc:	9f 3f       	cpi	r25, 0xFF	; 255
    19fe:	19 f4       	brne	.+6      	; 0x1a06 <__addsf3+0x24>
    1a00:	26 f4       	brtc	.+8      	; 0x1a0a <__addsf3+0x28>
    1a02:	0c 94 b1 0e 	jmp	0x1d62	; 0x1d62 <__fp_nan>
    1a06:	0e f4       	brtc	.+2      	; 0x1a0a <__addsf3+0x28>
    1a08:	e0 95       	com	r30
    1a0a:	e7 fb       	bst	r30, 7
    1a0c:	0c 94 ab 0e 	jmp	0x1d56	; 0x1d56 <__fp_inf>

00001a10 <__addsf3x>:
    1a10:	e9 2f       	mov	r30, r25
    1a12:	0e 94 4d 0f 	call	0x1e9a	; 0x1e9a <__fp_split3>
    1a16:	58 f3       	brcs	.-42     	; 0x19ee <__addsf3+0xc>
    1a18:	ba 17       	cp	r27, r26
    1a1a:	62 07       	cpc	r22, r18
    1a1c:	73 07       	cpc	r23, r19
    1a1e:	84 07       	cpc	r24, r20
    1a20:	95 07       	cpc	r25, r21
    1a22:	20 f0       	brcs	.+8      	; 0x1a2c <__addsf3x+0x1c>
    1a24:	79 f4       	brne	.+30     	; 0x1a44 <__addsf3x+0x34>
    1a26:	a6 f5       	brtc	.+104    	; 0x1a90 <__addsf3x+0x80>
    1a28:	0c 94 6f 0f 	jmp	0x1ede	; 0x1ede <__fp_zero>
    1a2c:	0e f4       	brtc	.+2      	; 0x1a30 <__addsf3x+0x20>
    1a2e:	e0 95       	com	r30
    1a30:	0b 2e       	mov	r0, r27
    1a32:	ba 2f       	mov	r27, r26
    1a34:	a0 2d       	mov	r26, r0
    1a36:	0b 01       	movw	r0, r22
    1a38:	b9 01       	movw	r22, r18
    1a3a:	90 01       	movw	r18, r0
    1a3c:	0c 01       	movw	r0, r24
    1a3e:	ca 01       	movw	r24, r20
    1a40:	a0 01       	movw	r20, r0
    1a42:	11 24       	eor	r1, r1
    1a44:	ff 27       	eor	r31, r31
    1a46:	59 1b       	sub	r21, r25
    1a48:	99 f0       	breq	.+38     	; 0x1a70 <__addsf3x+0x60>
    1a4a:	59 3f       	cpi	r21, 0xF9	; 249
    1a4c:	50 f4       	brcc	.+20     	; 0x1a62 <__addsf3x+0x52>
    1a4e:	50 3e       	cpi	r21, 0xE0	; 224
    1a50:	68 f1       	brcs	.+90     	; 0x1aac <__addsf3x+0x9c>
    1a52:	1a 16       	cp	r1, r26
    1a54:	f0 40       	sbci	r31, 0x00	; 0
    1a56:	a2 2f       	mov	r26, r18
    1a58:	23 2f       	mov	r18, r19
    1a5a:	34 2f       	mov	r19, r20
    1a5c:	44 27       	eor	r20, r20
    1a5e:	58 5f       	subi	r21, 0xF8	; 248
    1a60:	f3 cf       	rjmp	.-26     	; 0x1a48 <__addsf3x+0x38>
    1a62:	46 95       	lsr	r20
    1a64:	37 95       	ror	r19
    1a66:	27 95       	ror	r18
    1a68:	a7 95       	ror	r26
    1a6a:	f0 40       	sbci	r31, 0x00	; 0
    1a6c:	53 95       	inc	r21
    1a6e:	c9 f7       	brne	.-14     	; 0x1a62 <__addsf3x+0x52>
    1a70:	7e f4       	brtc	.+30     	; 0x1a90 <__addsf3x+0x80>
    1a72:	1f 16       	cp	r1, r31
    1a74:	ba 0b       	sbc	r27, r26
    1a76:	62 0b       	sbc	r22, r18
    1a78:	73 0b       	sbc	r23, r19
    1a7a:	84 0b       	sbc	r24, r20
    1a7c:	ba f0       	brmi	.+46     	; 0x1aac <__addsf3x+0x9c>
    1a7e:	91 50       	subi	r25, 0x01	; 1
    1a80:	a1 f0       	breq	.+40     	; 0x1aaa <__addsf3x+0x9a>
    1a82:	ff 0f       	add	r31, r31
    1a84:	bb 1f       	adc	r27, r27
    1a86:	66 1f       	adc	r22, r22
    1a88:	77 1f       	adc	r23, r23
    1a8a:	88 1f       	adc	r24, r24
    1a8c:	c2 f7       	brpl	.-16     	; 0x1a7e <__addsf3x+0x6e>
    1a8e:	0e c0       	rjmp	.+28     	; 0x1aac <__addsf3x+0x9c>
    1a90:	ba 0f       	add	r27, r26
    1a92:	62 1f       	adc	r22, r18
    1a94:	73 1f       	adc	r23, r19
    1a96:	84 1f       	adc	r24, r20
    1a98:	48 f4       	brcc	.+18     	; 0x1aac <__addsf3x+0x9c>
    1a9a:	87 95       	ror	r24
    1a9c:	77 95       	ror	r23
    1a9e:	67 95       	ror	r22
    1aa0:	b7 95       	ror	r27
    1aa2:	f7 95       	ror	r31
    1aa4:	9e 3f       	cpi	r25, 0xFE	; 254
    1aa6:	08 f0       	brcs	.+2      	; 0x1aaa <__addsf3x+0x9a>
    1aa8:	b0 cf       	rjmp	.-160    	; 0x1a0a <__addsf3+0x28>
    1aaa:	93 95       	inc	r25
    1aac:	88 0f       	add	r24, r24
    1aae:	08 f0       	brcs	.+2      	; 0x1ab2 <__addsf3x+0xa2>
    1ab0:	99 27       	eor	r25, r25
    1ab2:	ee 0f       	add	r30, r30
    1ab4:	97 95       	ror	r25
    1ab6:	87 95       	ror	r24
    1ab8:	08 95       	ret

00001aba <asin>:
    1aba:	9f 93       	push	r25
    1abc:	9f 77       	andi	r25, 0x7F	; 127
    1abe:	ee e3       	ldi	r30, 0x3E	; 62
    1ac0:	89 37       	cpi	r24, 0x79	; 121
    1ac2:	9e 07       	cpc	r25, r30
    1ac4:	28 f4       	brcc	.+10     	; 0x1ad0 <asin+0x16>
    1ac6:	ec e8       	ldi	r30, 0x8C	; 140
    1ac8:	f0 e0       	ldi	r31, 0x00	; 0
    1aca:	0e 94 db 0e 	call	0x1db6	; 0x1db6 <__fp_powsodd>
    1ace:	0c c0       	rjmp	.+24     	; 0x1ae8 <asin+0x2e>
    1ad0:	0e 94 67 0e 	call	0x1cce	; 0x1cce <__fp_arccos>
    1ad4:	90 58       	subi	r25, 0x80	; 128
    1ad6:	a2 ea       	ldi	r26, 0xA2	; 162
    1ad8:	2a ed       	ldi	r18, 0xDA	; 218
    1ada:	3f e0       	ldi	r19, 0x0F	; 15
    1adc:	49 ec       	ldi	r20, 0xC9	; 201
    1ade:	5f e3       	ldi	r21, 0x3F	; 63
    1ae0:	0e 94 08 0d 	call	0x1a10	; 0x1a10 <__addsf3x>
    1ae4:	0e 94 28 0f 	call	0x1e50	; 0x1e50 <__fp_round>
    1ae8:	0f 90       	pop	r0
    1aea:	07 fc       	sbrc	r0, 7
    1aec:	90 58       	subi	r25, 0x80	; 128
    1aee:	08 95       	ret

00001af0 <__cmpsf2>:
    1af0:	0e 94 87 0e 	call	0x1d0e	; 0x1d0e <__fp_cmp>
    1af4:	08 f4       	brcc	.+2      	; 0x1af8 <__cmpsf2+0x8>
    1af6:	81 e0       	ldi	r24, 0x01	; 1
    1af8:	08 95       	ret

00001afa <cos>:
    1afa:	0e 94 ff 0e 	call	0x1dfe	; 0x1dfe <__fp_rempio2>
    1afe:	e3 95       	inc	r30
    1b00:	0c 94 39 0f 	jmp	0x1e72	; 0x1e72 <__fp_sinus>

00001b04 <__divsf3>:
    1b04:	0e 94 96 0d 	call	0x1b2c	; 0x1b2c <__divsf3x>
    1b08:	0c 94 28 0f 	jmp	0x1e50	; 0x1e50 <__fp_round>
    1b0c:	0e 94 f6 0e 	call	0x1dec	; 0x1dec <__fp_pscB>
    1b10:	58 f0       	brcs	.+22     	; 0x1b28 <__divsf3+0x24>
    1b12:	0e 94 ef 0e 	call	0x1dde	; 0x1dde <__fp_pscA>
    1b16:	40 f0       	brcs	.+16     	; 0x1b28 <__divsf3+0x24>
    1b18:	29 f4       	brne	.+10     	; 0x1b24 <__divsf3+0x20>
    1b1a:	5f 3f       	cpi	r21, 0xFF	; 255
    1b1c:	29 f0       	breq	.+10     	; 0x1b28 <__divsf3+0x24>
    1b1e:	0c 94 ab 0e 	jmp	0x1d56	; 0x1d56 <__fp_inf>
    1b22:	51 11       	cpse	r21, r1
    1b24:	0c 94 70 0f 	jmp	0x1ee0	; 0x1ee0 <__fp_szero>
    1b28:	0c 94 b1 0e 	jmp	0x1d62	; 0x1d62 <__fp_nan>

00001b2c <__divsf3x>:
    1b2c:	0e 94 4d 0f 	call	0x1e9a	; 0x1e9a <__fp_split3>
    1b30:	68 f3       	brcs	.-38     	; 0x1b0c <__divsf3+0x8>

00001b32 <__divsf3_pse>:
    1b32:	99 23       	and	r25, r25
    1b34:	b1 f3       	breq	.-20     	; 0x1b22 <__divsf3+0x1e>
    1b36:	55 23       	and	r21, r21
    1b38:	91 f3       	breq	.-28     	; 0x1b1e <__divsf3+0x1a>
    1b3a:	95 1b       	sub	r25, r21
    1b3c:	55 0b       	sbc	r21, r21
    1b3e:	bb 27       	eor	r27, r27
    1b40:	aa 27       	eor	r26, r26
    1b42:	62 17       	cp	r22, r18
    1b44:	73 07       	cpc	r23, r19
    1b46:	84 07       	cpc	r24, r20
    1b48:	38 f0       	brcs	.+14     	; 0x1b58 <__divsf3_pse+0x26>
    1b4a:	9f 5f       	subi	r25, 0xFF	; 255
    1b4c:	5f 4f       	sbci	r21, 0xFF	; 255
    1b4e:	22 0f       	add	r18, r18
    1b50:	33 1f       	adc	r19, r19
    1b52:	44 1f       	adc	r20, r20
    1b54:	aa 1f       	adc	r26, r26
    1b56:	a9 f3       	breq	.-22     	; 0x1b42 <__divsf3_pse+0x10>
    1b58:	35 d0       	rcall	.+106    	; 0x1bc4 <__divsf3_pse+0x92>
    1b5a:	0e 2e       	mov	r0, r30
    1b5c:	3a f0       	brmi	.+14     	; 0x1b6c <__divsf3_pse+0x3a>
    1b5e:	e0 e8       	ldi	r30, 0x80	; 128
    1b60:	32 d0       	rcall	.+100    	; 0x1bc6 <__divsf3_pse+0x94>
    1b62:	91 50       	subi	r25, 0x01	; 1
    1b64:	50 40       	sbci	r21, 0x00	; 0
    1b66:	e6 95       	lsr	r30
    1b68:	00 1c       	adc	r0, r0
    1b6a:	ca f7       	brpl	.-14     	; 0x1b5e <__divsf3_pse+0x2c>
    1b6c:	2b d0       	rcall	.+86     	; 0x1bc4 <__divsf3_pse+0x92>
    1b6e:	fe 2f       	mov	r31, r30
    1b70:	29 d0       	rcall	.+82     	; 0x1bc4 <__divsf3_pse+0x92>
    1b72:	66 0f       	add	r22, r22
    1b74:	77 1f       	adc	r23, r23
    1b76:	88 1f       	adc	r24, r24
    1b78:	bb 1f       	adc	r27, r27
    1b7a:	26 17       	cp	r18, r22
    1b7c:	37 07       	cpc	r19, r23
    1b7e:	48 07       	cpc	r20, r24
    1b80:	ab 07       	cpc	r26, r27
    1b82:	b0 e8       	ldi	r27, 0x80	; 128
    1b84:	09 f0       	breq	.+2      	; 0x1b88 <__divsf3_pse+0x56>
    1b86:	bb 0b       	sbc	r27, r27
    1b88:	80 2d       	mov	r24, r0
    1b8a:	bf 01       	movw	r22, r30
    1b8c:	ff 27       	eor	r31, r31
    1b8e:	93 58       	subi	r25, 0x83	; 131
    1b90:	5f 4f       	sbci	r21, 0xFF	; 255
    1b92:	3a f0       	brmi	.+14     	; 0x1ba2 <__divsf3_pse+0x70>
    1b94:	9e 3f       	cpi	r25, 0xFE	; 254
    1b96:	51 05       	cpc	r21, r1
    1b98:	78 f0       	brcs	.+30     	; 0x1bb8 <__divsf3_pse+0x86>
    1b9a:	0c 94 ab 0e 	jmp	0x1d56	; 0x1d56 <__fp_inf>
    1b9e:	0c 94 70 0f 	jmp	0x1ee0	; 0x1ee0 <__fp_szero>
    1ba2:	5f 3f       	cpi	r21, 0xFF	; 255
    1ba4:	e4 f3       	brlt	.-8      	; 0x1b9e <__divsf3_pse+0x6c>
    1ba6:	98 3e       	cpi	r25, 0xE8	; 232
    1ba8:	d4 f3       	brlt	.-12     	; 0x1b9e <__divsf3_pse+0x6c>
    1baa:	86 95       	lsr	r24
    1bac:	77 95       	ror	r23
    1bae:	67 95       	ror	r22
    1bb0:	b7 95       	ror	r27
    1bb2:	f7 95       	ror	r31
    1bb4:	9f 5f       	subi	r25, 0xFF	; 255
    1bb6:	c9 f7       	brne	.-14     	; 0x1baa <__divsf3_pse+0x78>
    1bb8:	88 0f       	add	r24, r24
    1bba:	91 1d       	adc	r25, r1
    1bbc:	96 95       	lsr	r25
    1bbe:	87 95       	ror	r24
    1bc0:	97 f9       	bld	r25, 7
    1bc2:	08 95       	ret
    1bc4:	e1 e0       	ldi	r30, 0x01	; 1
    1bc6:	66 0f       	add	r22, r22
    1bc8:	77 1f       	adc	r23, r23
    1bca:	88 1f       	adc	r24, r24
    1bcc:	bb 1f       	adc	r27, r27
    1bce:	62 17       	cp	r22, r18
    1bd0:	73 07       	cpc	r23, r19
    1bd2:	84 07       	cpc	r24, r20
    1bd4:	ba 07       	cpc	r27, r26
    1bd6:	20 f0       	brcs	.+8      	; 0x1be0 <__divsf3_pse+0xae>
    1bd8:	62 1b       	sub	r22, r18
    1bda:	73 0b       	sbc	r23, r19
    1bdc:	84 0b       	sbc	r24, r20
    1bde:	ba 0b       	sbc	r27, r26
    1be0:	ee 1f       	adc	r30, r30
    1be2:	88 f7       	brcc	.-30     	; 0x1bc6 <__divsf3_pse+0x94>
    1be4:	e0 95       	com	r30
    1be6:	08 95       	ret

00001be8 <__fixsfsi>:
    1be8:	0e 94 fb 0d 	call	0x1bf6	; 0x1bf6 <__fixunssfsi>
    1bec:	68 94       	set
    1bee:	b1 11       	cpse	r27, r1
    1bf0:	0c 94 70 0f 	jmp	0x1ee0	; 0x1ee0 <__fp_szero>
    1bf4:	08 95       	ret

00001bf6 <__fixunssfsi>:
    1bf6:	0e 94 55 0f 	call	0x1eaa	; 0x1eaa <__fp_splitA>
    1bfa:	88 f0       	brcs	.+34     	; 0x1c1e <__fixunssfsi+0x28>
    1bfc:	9f 57       	subi	r25, 0x7F	; 127
    1bfe:	98 f0       	brcs	.+38     	; 0x1c26 <__fixunssfsi+0x30>
    1c00:	b9 2f       	mov	r27, r25
    1c02:	99 27       	eor	r25, r25
    1c04:	b7 51       	subi	r27, 0x17	; 23
    1c06:	b0 f0       	brcs	.+44     	; 0x1c34 <__fixunssfsi+0x3e>
    1c08:	e1 f0       	breq	.+56     	; 0x1c42 <__fixunssfsi+0x4c>
    1c0a:	66 0f       	add	r22, r22
    1c0c:	77 1f       	adc	r23, r23
    1c0e:	88 1f       	adc	r24, r24
    1c10:	99 1f       	adc	r25, r25
    1c12:	1a f0       	brmi	.+6      	; 0x1c1a <__fixunssfsi+0x24>
    1c14:	ba 95       	dec	r27
    1c16:	c9 f7       	brne	.-14     	; 0x1c0a <__fixunssfsi+0x14>
    1c18:	14 c0       	rjmp	.+40     	; 0x1c42 <__fixunssfsi+0x4c>
    1c1a:	b1 30       	cpi	r27, 0x01	; 1
    1c1c:	91 f0       	breq	.+36     	; 0x1c42 <__fixunssfsi+0x4c>
    1c1e:	0e 94 6f 0f 	call	0x1ede	; 0x1ede <__fp_zero>
    1c22:	b1 e0       	ldi	r27, 0x01	; 1
    1c24:	08 95       	ret
    1c26:	0c 94 6f 0f 	jmp	0x1ede	; 0x1ede <__fp_zero>
    1c2a:	67 2f       	mov	r22, r23
    1c2c:	78 2f       	mov	r23, r24
    1c2e:	88 27       	eor	r24, r24
    1c30:	b8 5f       	subi	r27, 0xF8	; 248
    1c32:	39 f0       	breq	.+14     	; 0x1c42 <__fixunssfsi+0x4c>
    1c34:	b9 3f       	cpi	r27, 0xF9	; 249
    1c36:	cc f3       	brlt	.-14     	; 0x1c2a <__fixunssfsi+0x34>
    1c38:	86 95       	lsr	r24
    1c3a:	77 95       	ror	r23
    1c3c:	67 95       	ror	r22
    1c3e:	b3 95       	inc	r27
    1c40:	d9 f7       	brne	.-10     	; 0x1c38 <__fixunssfsi+0x42>
    1c42:	3e f4       	brtc	.+14     	; 0x1c52 <__fixunssfsi+0x5c>
    1c44:	90 95       	com	r25
    1c46:	80 95       	com	r24
    1c48:	70 95       	com	r23
    1c4a:	61 95       	neg	r22
    1c4c:	7f 4f       	sbci	r23, 0xFF	; 255
    1c4e:	8f 4f       	sbci	r24, 0xFF	; 255
    1c50:	9f 4f       	sbci	r25, 0xFF	; 255
    1c52:	08 95       	ret

00001c54 <__floatunsisf>:
    1c54:	e8 94       	clt
    1c56:	09 c0       	rjmp	.+18     	; 0x1c6a <__floatsisf+0x12>

00001c58 <__floatsisf>:
    1c58:	97 fb       	bst	r25, 7
    1c5a:	3e f4       	brtc	.+14     	; 0x1c6a <__floatsisf+0x12>
    1c5c:	90 95       	com	r25
    1c5e:	80 95       	com	r24
    1c60:	70 95       	com	r23
    1c62:	61 95       	neg	r22
    1c64:	7f 4f       	sbci	r23, 0xFF	; 255
    1c66:	8f 4f       	sbci	r24, 0xFF	; 255
    1c68:	9f 4f       	sbci	r25, 0xFF	; 255
    1c6a:	99 23       	and	r25, r25
    1c6c:	a9 f0       	breq	.+42     	; 0x1c98 <__floatsisf+0x40>
    1c6e:	f9 2f       	mov	r31, r25
    1c70:	96 e9       	ldi	r25, 0x96	; 150
    1c72:	bb 27       	eor	r27, r27
    1c74:	93 95       	inc	r25
    1c76:	f6 95       	lsr	r31
    1c78:	87 95       	ror	r24
    1c7a:	77 95       	ror	r23
    1c7c:	67 95       	ror	r22
    1c7e:	b7 95       	ror	r27
    1c80:	f1 11       	cpse	r31, r1
    1c82:	f8 cf       	rjmp	.-16     	; 0x1c74 <__floatsisf+0x1c>
    1c84:	fa f4       	brpl	.+62     	; 0x1cc4 <__floatsisf+0x6c>
    1c86:	bb 0f       	add	r27, r27
    1c88:	11 f4       	brne	.+4      	; 0x1c8e <__floatsisf+0x36>
    1c8a:	60 ff       	sbrs	r22, 0
    1c8c:	1b c0       	rjmp	.+54     	; 0x1cc4 <__floatsisf+0x6c>
    1c8e:	6f 5f       	subi	r22, 0xFF	; 255
    1c90:	7f 4f       	sbci	r23, 0xFF	; 255
    1c92:	8f 4f       	sbci	r24, 0xFF	; 255
    1c94:	9f 4f       	sbci	r25, 0xFF	; 255
    1c96:	16 c0       	rjmp	.+44     	; 0x1cc4 <__floatsisf+0x6c>
    1c98:	88 23       	and	r24, r24
    1c9a:	11 f0       	breq	.+4      	; 0x1ca0 <__floatsisf+0x48>
    1c9c:	96 e9       	ldi	r25, 0x96	; 150
    1c9e:	11 c0       	rjmp	.+34     	; 0x1cc2 <__floatsisf+0x6a>
    1ca0:	77 23       	and	r23, r23
    1ca2:	21 f0       	breq	.+8      	; 0x1cac <__floatsisf+0x54>
    1ca4:	9e e8       	ldi	r25, 0x8E	; 142
    1ca6:	87 2f       	mov	r24, r23
    1ca8:	76 2f       	mov	r23, r22
    1caa:	05 c0       	rjmp	.+10     	; 0x1cb6 <__floatsisf+0x5e>
    1cac:	66 23       	and	r22, r22
    1cae:	71 f0       	breq	.+28     	; 0x1ccc <__floatsisf+0x74>
    1cb0:	96 e8       	ldi	r25, 0x86	; 134
    1cb2:	86 2f       	mov	r24, r22
    1cb4:	70 e0       	ldi	r23, 0x00	; 0
    1cb6:	60 e0       	ldi	r22, 0x00	; 0
    1cb8:	2a f0       	brmi	.+10     	; 0x1cc4 <__floatsisf+0x6c>
    1cba:	9a 95       	dec	r25
    1cbc:	66 0f       	add	r22, r22
    1cbe:	77 1f       	adc	r23, r23
    1cc0:	88 1f       	adc	r24, r24
    1cc2:	da f7       	brpl	.-10     	; 0x1cba <__floatsisf+0x62>
    1cc4:	88 0f       	add	r24, r24
    1cc6:	96 95       	lsr	r25
    1cc8:	87 95       	ror	r24
    1cca:	97 f9       	bld	r25, 7
    1ccc:	08 95       	ret

00001cce <__fp_arccos>:
    1cce:	df 93       	push	r29
    1cd0:	cf 93       	push	r28
    1cd2:	1f 93       	push	r17
    1cd4:	0f 93       	push	r16
    1cd6:	8b 01       	movw	r16, r22
    1cd8:	ec 01       	movw	r28, r24
    1cda:	e0 ea       	ldi	r30, 0xA0	; 160
    1cdc:	f0 e0       	ldi	r31, 0x00	; 0
    1cde:	0e 94 b4 0e 	call	0x1d68	; 0x1d68 <__fp_powser>
    1ce2:	0e 94 28 0f 	call	0x1e50	; 0x1e50 <__fp_round>
    1ce6:	98 01       	movw	r18, r16
    1ce8:	ae 01       	movw	r20, r28
    1cea:	8b 01       	movw	r16, r22
    1cec:	ec 01       	movw	r28, r24
    1cee:	60 e0       	ldi	r22, 0x00	; 0
    1cf0:	70 e0       	ldi	r23, 0x00	; 0
    1cf2:	80 e8       	ldi	r24, 0x80	; 128
    1cf4:	9f e3       	ldi	r25, 0x3F	; 63
    1cf6:	0e 94 f0 0c 	call	0x19e0	; 0x19e0 <__subsf3>
    1cfa:	0e 94 f6 0f 	call	0x1fec	; 0x1fec <sqrt>
    1cfe:	98 01       	movw	r18, r16
    1d00:	ae 01       	movw	r20, r28
    1d02:	0f 91       	pop	r16
    1d04:	1f 91       	pop	r17
    1d06:	cf 91       	pop	r28
    1d08:	df 91       	pop	r29
    1d0a:	0c 94 8e 0f 	jmp	0x1f1c	; 0x1f1c <__mulsf3x>

00001d0e <__fp_cmp>:
    1d0e:	99 0f       	add	r25, r25
    1d10:	00 08       	sbc	r0, r0
    1d12:	55 0f       	add	r21, r21
    1d14:	aa 0b       	sbc	r26, r26
    1d16:	e0 e8       	ldi	r30, 0x80	; 128
    1d18:	fe ef       	ldi	r31, 0xFE	; 254
    1d1a:	16 16       	cp	r1, r22
    1d1c:	17 06       	cpc	r1, r23
    1d1e:	e8 07       	cpc	r30, r24
    1d20:	f9 07       	cpc	r31, r25
    1d22:	c0 f0       	brcs	.+48     	; 0x1d54 <__fp_cmp+0x46>
    1d24:	12 16       	cp	r1, r18
    1d26:	13 06       	cpc	r1, r19
    1d28:	e4 07       	cpc	r30, r20
    1d2a:	f5 07       	cpc	r31, r21
    1d2c:	98 f0       	brcs	.+38     	; 0x1d54 <__fp_cmp+0x46>
    1d2e:	62 1b       	sub	r22, r18
    1d30:	73 0b       	sbc	r23, r19
    1d32:	84 0b       	sbc	r24, r20
    1d34:	95 0b       	sbc	r25, r21
    1d36:	39 f4       	brne	.+14     	; 0x1d46 <__fp_cmp+0x38>
    1d38:	0a 26       	eor	r0, r26
    1d3a:	61 f0       	breq	.+24     	; 0x1d54 <__fp_cmp+0x46>
    1d3c:	23 2b       	or	r18, r19
    1d3e:	24 2b       	or	r18, r20
    1d40:	25 2b       	or	r18, r21
    1d42:	21 f4       	brne	.+8      	; 0x1d4c <__fp_cmp+0x3e>
    1d44:	08 95       	ret
    1d46:	0a 26       	eor	r0, r26
    1d48:	09 f4       	brne	.+2      	; 0x1d4c <__fp_cmp+0x3e>
    1d4a:	a1 40       	sbci	r26, 0x01	; 1
    1d4c:	a6 95       	lsr	r26
    1d4e:	8f ef       	ldi	r24, 0xFF	; 255
    1d50:	81 1d       	adc	r24, r1
    1d52:	81 1d       	adc	r24, r1
    1d54:	08 95       	ret

00001d56 <__fp_inf>:
    1d56:	97 f9       	bld	r25, 7
    1d58:	9f 67       	ori	r25, 0x7F	; 127
    1d5a:	80 e8       	ldi	r24, 0x80	; 128
    1d5c:	70 e0       	ldi	r23, 0x00	; 0
    1d5e:	60 e0       	ldi	r22, 0x00	; 0
    1d60:	08 95       	ret

00001d62 <__fp_nan>:
    1d62:	9f ef       	ldi	r25, 0xFF	; 255
    1d64:	80 ec       	ldi	r24, 0xC0	; 192
    1d66:	08 95       	ret

00001d68 <__fp_powser>:
    1d68:	df 93       	push	r29
    1d6a:	cf 93       	push	r28
    1d6c:	1f 93       	push	r17
    1d6e:	0f 93       	push	r16
    1d70:	ff 92       	push	r15
    1d72:	ef 92       	push	r14
    1d74:	df 92       	push	r13
    1d76:	7b 01       	movw	r14, r22
    1d78:	8c 01       	movw	r16, r24
    1d7a:	68 94       	set
    1d7c:	06 c0       	rjmp	.+12     	; 0x1d8a <__fp_powser+0x22>
    1d7e:	da 2e       	mov	r13, r26
    1d80:	ef 01       	movw	r28, r30
    1d82:	0e 94 8e 0f 	call	0x1f1c	; 0x1f1c <__mulsf3x>
    1d86:	fe 01       	movw	r30, r28
    1d88:	e8 94       	clt
    1d8a:	a5 91       	lpm	r26, Z+
    1d8c:	25 91       	lpm	r18, Z+
    1d8e:	35 91       	lpm	r19, Z+
    1d90:	45 91       	lpm	r20, Z+
    1d92:	55 91       	lpm	r21, Z+
    1d94:	a6 f3       	brts	.-24     	; 0x1d7e <__fp_powser+0x16>
    1d96:	ef 01       	movw	r28, r30
    1d98:	0e 94 08 0d 	call	0x1a10	; 0x1a10 <__addsf3x>
    1d9c:	fe 01       	movw	r30, r28
    1d9e:	97 01       	movw	r18, r14
    1da0:	a8 01       	movw	r20, r16
    1da2:	da 94       	dec	r13
    1da4:	69 f7       	brne	.-38     	; 0x1d80 <__fp_powser+0x18>
    1da6:	df 90       	pop	r13
    1da8:	ef 90       	pop	r14
    1daa:	ff 90       	pop	r15
    1dac:	0f 91       	pop	r16
    1dae:	1f 91       	pop	r17
    1db0:	cf 91       	pop	r28
    1db2:	df 91       	pop	r29
    1db4:	08 95       	ret

00001db6 <__fp_powsodd>:
    1db6:	9f 93       	push	r25
    1db8:	8f 93       	push	r24
    1dba:	7f 93       	push	r23
    1dbc:	6f 93       	push	r22
    1dbe:	ff 93       	push	r31
    1dc0:	ef 93       	push	r30
    1dc2:	9b 01       	movw	r18, r22
    1dc4:	ac 01       	movw	r20, r24
    1dc6:	0e 94 7b 0f 	call	0x1ef6	; 0x1ef6 <__mulsf3>
    1dca:	ef 91       	pop	r30
    1dcc:	ff 91       	pop	r31
    1dce:	0e 94 b4 0e 	call	0x1d68	; 0x1d68 <__fp_powser>
    1dd2:	2f 91       	pop	r18
    1dd4:	3f 91       	pop	r19
    1dd6:	4f 91       	pop	r20
    1dd8:	5f 91       	pop	r21
    1dda:	0c 94 7b 0f 	jmp	0x1ef6	; 0x1ef6 <__mulsf3>

00001dde <__fp_pscA>:
    1dde:	00 24       	eor	r0, r0
    1de0:	0a 94       	dec	r0
    1de2:	16 16       	cp	r1, r22
    1de4:	17 06       	cpc	r1, r23
    1de6:	18 06       	cpc	r1, r24
    1de8:	09 06       	cpc	r0, r25
    1dea:	08 95       	ret

00001dec <__fp_pscB>:
    1dec:	00 24       	eor	r0, r0
    1dee:	0a 94       	dec	r0
    1df0:	12 16       	cp	r1, r18
    1df2:	13 06       	cpc	r1, r19
    1df4:	14 06       	cpc	r1, r20
    1df6:	05 06       	cpc	r0, r21
    1df8:	08 95       	ret
    1dfa:	0c 94 b1 0e 	jmp	0x1d62	; 0x1d62 <__fp_nan>

00001dfe <__fp_rempio2>:
    1dfe:	0e 94 55 0f 	call	0x1eaa	; 0x1eaa <__fp_splitA>
    1e02:	d8 f3       	brcs	.-10     	; 0x1dfa <__fp_pscB+0xe>
    1e04:	e8 94       	clt
    1e06:	e0 e0       	ldi	r30, 0x00	; 0
    1e08:	bb 27       	eor	r27, r27
    1e0a:	9f 57       	subi	r25, 0x7F	; 127
    1e0c:	f0 f0       	brcs	.+60     	; 0x1e4a <__fp_rempio2+0x4c>
    1e0e:	2a ed       	ldi	r18, 0xDA	; 218
    1e10:	3f e0       	ldi	r19, 0x0F	; 15
    1e12:	49 ec       	ldi	r20, 0xC9	; 201
    1e14:	06 c0       	rjmp	.+12     	; 0x1e22 <__fp_rempio2+0x24>
    1e16:	ee 0f       	add	r30, r30
    1e18:	bb 0f       	add	r27, r27
    1e1a:	66 1f       	adc	r22, r22
    1e1c:	77 1f       	adc	r23, r23
    1e1e:	88 1f       	adc	r24, r24
    1e20:	28 f0       	brcs	.+10     	; 0x1e2c <__fp_rempio2+0x2e>
    1e22:	b2 3a       	cpi	r27, 0xA2	; 162
    1e24:	62 07       	cpc	r22, r18
    1e26:	73 07       	cpc	r23, r19
    1e28:	84 07       	cpc	r24, r20
    1e2a:	28 f0       	brcs	.+10     	; 0x1e36 <__fp_rempio2+0x38>
    1e2c:	b2 5a       	subi	r27, 0xA2	; 162
    1e2e:	62 0b       	sbc	r22, r18
    1e30:	73 0b       	sbc	r23, r19
    1e32:	84 0b       	sbc	r24, r20
    1e34:	e3 95       	inc	r30
    1e36:	9a 95       	dec	r25
    1e38:	72 f7       	brpl	.-36     	; 0x1e16 <__fp_rempio2+0x18>
    1e3a:	80 38       	cpi	r24, 0x80	; 128
    1e3c:	30 f4       	brcc	.+12     	; 0x1e4a <__fp_rempio2+0x4c>
    1e3e:	9a 95       	dec	r25
    1e40:	bb 0f       	add	r27, r27
    1e42:	66 1f       	adc	r22, r22
    1e44:	77 1f       	adc	r23, r23
    1e46:	88 1f       	adc	r24, r24
    1e48:	d2 f7       	brpl	.-12     	; 0x1e3e <__fp_rempio2+0x40>
    1e4a:	90 48       	sbci	r25, 0x80	; 128
    1e4c:	0c 94 38 10 	jmp	0x2070	; 0x2070 <__fp_mpack_finite>

00001e50 <__fp_round>:
    1e50:	09 2e       	mov	r0, r25
    1e52:	03 94       	inc	r0
    1e54:	00 0c       	add	r0, r0
    1e56:	11 f4       	brne	.+4      	; 0x1e5c <__fp_round+0xc>
    1e58:	88 23       	and	r24, r24
    1e5a:	52 f0       	brmi	.+20     	; 0x1e70 <__fp_round+0x20>
    1e5c:	bb 0f       	add	r27, r27
    1e5e:	40 f4       	brcc	.+16     	; 0x1e70 <__fp_round+0x20>
    1e60:	bf 2b       	or	r27, r31
    1e62:	11 f4       	brne	.+4      	; 0x1e68 <__fp_round+0x18>
    1e64:	60 ff       	sbrs	r22, 0
    1e66:	04 c0       	rjmp	.+8      	; 0x1e70 <__fp_round+0x20>
    1e68:	6f 5f       	subi	r22, 0xFF	; 255
    1e6a:	7f 4f       	sbci	r23, 0xFF	; 255
    1e6c:	8f 4f       	sbci	r24, 0xFF	; 255
    1e6e:	9f 4f       	sbci	r25, 0xFF	; 255
    1e70:	08 95       	ret

00001e72 <__fp_sinus>:
    1e72:	ef 93       	push	r30
    1e74:	e0 ff       	sbrs	r30, 0
    1e76:	07 c0       	rjmp	.+14     	; 0x1e86 <__fp_sinus+0x14>
    1e78:	a2 ea       	ldi	r26, 0xA2	; 162
    1e7a:	2a ed       	ldi	r18, 0xDA	; 218
    1e7c:	3f e0       	ldi	r19, 0x0F	; 15
    1e7e:	49 ec       	ldi	r20, 0xC9	; 201
    1e80:	5f eb       	ldi	r21, 0xBF	; 191
    1e82:	0e 94 08 0d 	call	0x1a10	; 0x1a10 <__addsf3x>
    1e86:	0e 94 28 0f 	call	0x1e50	; 0x1e50 <__fp_round>
    1e8a:	0f 90       	pop	r0
    1e8c:	03 94       	inc	r0
    1e8e:	01 fc       	sbrc	r0, 1
    1e90:	90 58       	subi	r25, 0x80	; 128
    1e92:	e8 ec       	ldi	r30, 0xC8	; 200
    1e94:	f0 e0       	ldi	r31, 0x00	; 0
    1e96:	0c 94 db 0e 	jmp	0x1db6	; 0x1db6 <__fp_powsodd>

00001e9a <__fp_split3>:
    1e9a:	57 fd       	sbrc	r21, 7
    1e9c:	90 58       	subi	r25, 0x80	; 128
    1e9e:	44 0f       	add	r20, r20
    1ea0:	55 1f       	adc	r21, r21
    1ea2:	59 f0       	breq	.+22     	; 0x1eba <__fp_splitA+0x10>
    1ea4:	5f 3f       	cpi	r21, 0xFF	; 255
    1ea6:	71 f0       	breq	.+28     	; 0x1ec4 <__fp_splitA+0x1a>
    1ea8:	47 95       	ror	r20

00001eaa <__fp_splitA>:
    1eaa:	88 0f       	add	r24, r24
    1eac:	97 fb       	bst	r25, 7
    1eae:	99 1f       	adc	r25, r25
    1eb0:	61 f0       	breq	.+24     	; 0x1eca <__fp_splitA+0x20>
    1eb2:	9f 3f       	cpi	r25, 0xFF	; 255
    1eb4:	79 f0       	breq	.+30     	; 0x1ed4 <__fp_splitA+0x2a>
    1eb6:	87 95       	ror	r24
    1eb8:	08 95       	ret
    1eba:	12 16       	cp	r1, r18
    1ebc:	13 06       	cpc	r1, r19
    1ebe:	14 06       	cpc	r1, r20
    1ec0:	55 1f       	adc	r21, r21
    1ec2:	f2 cf       	rjmp	.-28     	; 0x1ea8 <__fp_split3+0xe>
    1ec4:	46 95       	lsr	r20
    1ec6:	f1 df       	rcall	.-30     	; 0x1eaa <__fp_splitA>
    1ec8:	08 c0       	rjmp	.+16     	; 0x1eda <__fp_splitA+0x30>
    1eca:	16 16       	cp	r1, r22
    1ecc:	17 06       	cpc	r1, r23
    1ece:	18 06       	cpc	r1, r24
    1ed0:	99 1f       	adc	r25, r25
    1ed2:	f1 cf       	rjmp	.-30     	; 0x1eb6 <__fp_splitA+0xc>
    1ed4:	86 95       	lsr	r24
    1ed6:	71 05       	cpc	r23, r1
    1ed8:	61 05       	cpc	r22, r1
    1eda:	08 94       	sec
    1edc:	08 95       	ret

00001ede <__fp_zero>:
    1ede:	e8 94       	clt

00001ee0 <__fp_szero>:
    1ee0:	bb 27       	eor	r27, r27
    1ee2:	66 27       	eor	r22, r22
    1ee4:	77 27       	eor	r23, r23
    1ee6:	cb 01       	movw	r24, r22
    1ee8:	97 f9       	bld	r25, 7
    1eea:	08 95       	ret

00001eec <__gesf2>:
    1eec:	0e 94 87 0e 	call	0x1d0e	; 0x1d0e <__fp_cmp>
    1ef0:	08 f4       	brcc	.+2      	; 0x1ef4 <__gesf2+0x8>
    1ef2:	8f ef       	ldi	r24, 0xFF	; 255
    1ef4:	08 95       	ret

00001ef6 <__mulsf3>:
    1ef6:	0e 94 8e 0f 	call	0x1f1c	; 0x1f1c <__mulsf3x>
    1efa:	0c 94 28 0f 	jmp	0x1e50	; 0x1e50 <__fp_round>
    1efe:	0e 94 ef 0e 	call	0x1dde	; 0x1dde <__fp_pscA>
    1f02:	38 f0       	brcs	.+14     	; 0x1f12 <__mulsf3+0x1c>
    1f04:	0e 94 f6 0e 	call	0x1dec	; 0x1dec <__fp_pscB>
    1f08:	20 f0       	brcs	.+8      	; 0x1f12 <__mulsf3+0x1c>
    1f0a:	95 23       	and	r25, r21
    1f0c:	11 f0       	breq	.+4      	; 0x1f12 <__mulsf3+0x1c>
    1f0e:	0c 94 ab 0e 	jmp	0x1d56	; 0x1d56 <__fp_inf>
    1f12:	0c 94 b1 0e 	jmp	0x1d62	; 0x1d62 <__fp_nan>
    1f16:	11 24       	eor	r1, r1
    1f18:	0c 94 70 0f 	jmp	0x1ee0	; 0x1ee0 <__fp_szero>

00001f1c <__mulsf3x>:
    1f1c:	0e 94 4d 0f 	call	0x1e9a	; 0x1e9a <__fp_split3>
    1f20:	70 f3       	brcs	.-36     	; 0x1efe <__mulsf3+0x8>

00001f22 <__mulsf3_pse>:
    1f22:	95 9f       	mul	r25, r21
    1f24:	c1 f3       	breq	.-16     	; 0x1f16 <__mulsf3+0x20>
    1f26:	95 0f       	add	r25, r21
    1f28:	50 e0       	ldi	r21, 0x00	; 0
    1f2a:	55 1f       	adc	r21, r21
    1f2c:	62 9f       	mul	r22, r18
    1f2e:	f0 01       	movw	r30, r0
    1f30:	72 9f       	mul	r23, r18
    1f32:	bb 27       	eor	r27, r27
    1f34:	f0 0d       	add	r31, r0
    1f36:	b1 1d       	adc	r27, r1
    1f38:	63 9f       	mul	r22, r19
    1f3a:	aa 27       	eor	r26, r26
    1f3c:	f0 0d       	add	r31, r0
    1f3e:	b1 1d       	adc	r27, r1
    1f40:	aa 1f       	adc	r26, r26
    1f42:	64 9f       	mul	r22, r20
    1f44:	66 27       	eor	r22, r22
    1f46:	b0 0d       	add	r27, r0
    1f48:	a1 1d       	adc	r26, r1
    1f4a:	66 1f       	adc	r22, r22
    1f4c:	82 9f       	mul	r24, r18
    1f4e:	22 27       	eor	r18, r18
    1f50:	b0 0d       	add	r27, r0
    1f52:	a1 1d       	adc	r26, r1
    1f54:	62 1f       	adc	r22, r18
    1f56:	73 9f       	mul	r23, r19
    1f58:	b0 0d       	add	r27, r0
    1f5a:	a1 1d       	adc	r26, r1
    1f5c:	62 1f       	adc	r22, r18
    1f5e:	83 9f       	mul	r24, r19
    1f60:	a0 0d       	add	r26, r0
    1f62:	61 1d       	adc	r22, r1
    1f64:	22 1f       	adc	r18, r18
    1f66:	74 9f       	mul	r23, r20
    1f68:	33 27       	eor	r19, r19
    1f6a:	a0 0d       	add	r26, r0
    1f6c:	61 1d       	adc	r22, r1
    1f6e:	23 1f       	adc	r18, r19
    1f70:	84 9f       	mul	r24, r20
    1f72:	60 0d       	add	r22, r0
    1f74:	21 1d       	adc	r18, r1
    1f76:	82 2f       	mov	r24, r18
    1f78:	76 2f       	mov	r23, r22
    1f7a:	6a 2f       	mov	r22, r26
    1f7c:	11 24       	eor	r1, r1
    1f7e:	9f 57       	subi	r25, 0x7F	; 127
    1f80:	50 40       	sbci	r21, 0x00	; 0
    1f82:	9a f0       	brmi	.+38     	; 0x1faa <__mulsf3_pse+0x88>
    1f84:	f1 f0       	breq	.+60     	; 0x1fc2 <__mulsf3_pse+0xa0>
    1f86:	88 23       	and	r24, r24
    1f88:	4a f0       	brmi	.+18     	; 0x1f9c <__mulsf3_pse+0x7a>
    1f8a:	ee 0f       	add	r30, r30
    1f8c:	ff 1f       	adc	r31, r31
    1f8e:	bb 1f       	adc	r27, r27
    1f90:	66 1f       	adc	r22, r22
    1f92:	77 1f       	adc	r23, r23
    1f94:	88 1f       	adc	r24, r24
    1f96:	91 50       	subi	r25, 0x01	; 1
    1f98:	50 40       	sbci	r21, 0x00	; 0
    1f9a:	a9 f7       	brne	.-22     	; 0x1f86 <__mulsf3_pse+0x64>
    1f9c:	9e 3f       	cpi	r25, 0xFE	; 254
    1f9e:	51 05       	cpc	r21, r1
    1fa0:	80 f0       	brcs	.+32     	; 0x1fc2 <__mulsf3_pse+0xa0>
    1fa2:	0c 94 ab 0e 	jmp	0x1d56	; 0x1d56 <__fp_inf>
    1fa6:	0c 94 70 0f 	jmp	0x1ee0	; 0x1ee0 <__fp_szero>
    1faa:	5f 3f       	cpi	r21, 0xFF	; 255
    1fac:	e4 f3       	brlt	.-8      	; 0x1fa6 <__mulsf3_pse+0x84>
    1fae:	98 3e       	cpi	r25, 0xE8	; 232
    1fb0:	d4 f3       	brlt	.-12     	; 0x1fa6 <__mulsf3_pse+0x84>
    1fb2:	86 95       	lsr	r24
    1fb4:	77 95       	ror	r23
    1fb6:	67 95       	ror	r22
    1fb8:	b7 95       	ror	r27
    1fba:	f7 95       	ror	r31
    1fbc:	e7 95       	ror	r30
    1fbe:	9f 5f       	subi	r25, 0xFF	; 255
    1fc0:	c1 f7       	brne	.-16     	; 0x1fb2 <__mulsf3_pse+0x90>
    1fc2:	fe 2b       	or	r31, r30
    1fc4:	88 0f       	add	r24, r24
    1fc6:	91 1d       	adc	r25, r1
    1fc8:	96 95       	lsr	r25
    1fca:	87 95       	ror	r24
    1fcc:	97 f9       	bld	r25, 7
    1fce:	08 95       	ret

00001fd0 <sin>:
    1fd0:	9f 93       	push	r25
    1fd2:	0e 94 ff 0e 	call	0x1dfe	; 0x1dfe <__fp_rempio2>
    1fd6:	0f 90       	pop	r0
    1fd8:	07 fc       	sbrc	r0, 7
    1fda:	ee 5f       	subi	r30, 0xFE	; 254
    1fdc:	0c 94 39 0f 	jmp	0x1e72	; 0x1e72 <__fp_sinus>
    1fe0:	19 f4       	brne	.+6      	; 0x1fe8 <sin+0x18>
    1fe2:	16 f4       	brtc	.+4      	; 0x1fe8 <sin+0x18>
    1fe4:	0c 94 b1 0e 	jmp	0x1d62	; 0x1d62 <__fp_nan>
    1fe8:	0c 94 36 10 	jmp	0x206c	; 0x206c <__fp_mpack>

00001fec <sqrt>:
    1fec:	0e 94 55 0f 	call	0x1eaa	; 0x1eaa <__fp_splitA>
    1ff0:	b8 f3       	brcs	.-18     	; 0x1fe0 <sin+0x10>
    1ff2:	99 23       	and	r25, r25
    1ff4:	c9 f3       	breq	.-14     	; 0x1fe8 <sin+0x18>
    1ff6:	b6 f3       	brts	.-20     	; 0x1fe4 <sin+0x14>
    1ff8:	9f 57       	subi	r25, 0x7F	; 127
    1ffa:	55 0b       	sbc	r21, r21
    1ffc:	87 ff       	sbrs	r24, 7
    1ffe:	0e 94 44 10 	call	0x2088	; 0x2088 <__fp_norm2>
    2002:	00 24       	eor	r0, r0
    2004:	a0 e6       	ldi	r26, 0x60	; 96
    2006:	40 ea       	ldi	r20, 0xA0	; 160
    2008:	90 01       	movw	r18, r0
    200a:	80 58       	subi	r24, 0x80	; 128
    200c:	56 95       	lsr	r21
    200e:	97 95       	ror	r25
    2010:	28 f4       	brcc	.+10     	; 0x201c <sqrt+0x30>
    2012:	80 5c       	subi	r24, 0xC0	; 192
    2014:	66 0f       	add	r22, r22
    2016:	77 1f       	adc	r23, r23
    2018:	88 1f       	adc	r24, r24
    201a:	20 f0       	brcs	.+8      	; 0x2024 <sqrt+0x38>
    201c:	26 17       	cp	r18, r22
    201e:	37 07       	cpc	r19, r23
    2020:	48 07       	cpc	r20, r24
    2022:	30 f4       	brcc	.+12     	; 0x2030 <sqrt+0x44>
    2024:	62 1b       	sub	r22, r18
    2026:	73 0b       	sbc	r23, r19
    2028:	84 0b       	sbc	r24, r20
    202a:	20 29       	or	r18, r0
    202c:	31 29       	or	r19, r1
    202e:	4a 2b       	or	r20, r26
    2030:	a6 95       	lsr	r26
    2032:	17 94       	ror	r1
    2034:	07 94       	ror	r0
    2036:	20 25       	eor	r18, r0
    2038:	31 25       	eor	r19, r1
    203a:	4a 27       	eor	r20, r26
    203c:	58 f7       	brcc	.-42     	; 0x2014 <sqrt+0x28>
    203e:	66 0f       	add	r22, r22
    2040:	77 1f       	adc	r23, r23
    2042:	88 1f       	adc	r24, r24
    2044:	20 f0       	brcs	.+8      	; 0x204e <sqrt+0x62>
    2046:	26 17       	cp	r18, r22
    2048:	37 07       	cpc	r19, r23
    204a:	48 07       	cpc	r20, r24
    204c:	30 f4       	brcc	.+12     	; 0x205a <sqrt+0x6e>
    204e:	62 0b       	sbc	r22, r18
    2050:	73 0b       	sbc	r23, r19
    2052:	84 0b       	sbc	r24, r20
    2054:	20 0d       	add	r18, r0
    2056:	31 1d       	adc	r19, r1
    2058:	41 1d       	adc	r20, r1
    205a:	a0 95       	com	r26
    205c:	81 f7       	brne	.-32     	; 0x203e <sqrt+0x52>
    205e:	b9 01       	movw	r22, r18
    2060:	84 2f       	mov	r24, r20
    2062:	91 58       	subi	r25, 0x81	; 129
    2064:	88 0f       	add	r24, r24
    2066:	96 95       	lsr	r25
    2068:	87 95       	ror	r24
    206a:	08 95       	ret

0000206c <__fp_mpack>:
    206c:	9f 3f       	cpi	r25, 0xFF	; 255
    206e:	31 f0       	breq	.+12     	; 0x207c <__fp_mpack_finite+0xc>

00002070 <__fp_mpack_finite>:
    2070:	91 50       	subi	r25, 0x01	; 1
    2072:	20 f4       	brcc	.+8      	; 0x207c <__fp_mpack_finite+0xc>
    2074:	87 95       	ror	r24
    2076:	77 95       	ror	r23
    2078:	67 95       	ror	r22
    207a:	b7 95       	ror	r27
    207c:	88 0f       	add	r24, r24
    207e:	91 1d       	adc	r25, r1
    2080:	96 95       	lsr	r25
    2082:	87 95       	ror	r24
    2084:	97 f9       	bld	r25, 7
    2086:	08 95       	ret

00002088 <__fp_norm2>:
    2088:	91 50       	subi	r25, 0x01	; 1
    208a:	50 40       	sbci	r21, 0x00	; 0
    208c:	66 0f       	add	r22, r22
    208e:	77 1f       	adc	r23, r23
    2090:	88 1f       	adc	r24, r24
    2092:	d2 f7       	brpl	.-12     	; 0x2088 <__fp_norm2>
    2094:	08 95       	ret

00002096 <__udivmodsi4>:
    2096:	a1 e2       	ldi	r26, 0x21	; 33
    2098:	1a 2e       	mov	r1, r26
    209a:	aa 1b       	sub	r26, r26
    209c:	bb 1b       	sub	r27, r27
    209e:	fd 01       	movw	r30, r26
    20a0:	0d c0       	rjmp	.+26     	; 0x20bc <__udivmodsi4_ep>

000020a2 <__udivmodsi4_loop>:
    20a2:	aa 1f       	adc	r26, r26
    20a4:	bb 1f       	adc	r27, r27
    20a6:	ee 1f       	adc	r30, r30
    20a8:	ff 1f       	adc	r31, r31
    20aa:	a2 17       	cp	r26, r18
    20ac:	b3 07       	cpc	r27, r19
    20ae:	e4 07       	cpc	r30, r20
    20b0:	f5 07       	cpc	r31, r21
    20b2:	20 f0       	brcs	.+8      	; 0x20bc <__udivmodsi4_ep>
    20b4:	a2 1b       	sub	r26, r18
    20b6:	b3 0b       	sbc	r27, r19
    20b8:	e4 0b       	sbc	r30, r20
    20ba:	f5 0b       	sbc	r31, r21

000020bc <__udivmodsi4_ep>:
    20bc:	66 1f       	adc	r22, r22
    20be:	77 1f       	adc	r23, r23
    20c0:	88 1f       	adc	r24, r24
    20c2:	99 1f       	adc	r25, r25
    20c4:	1a 94       	dec	r1
    20c6:	69 f7       	brne	.-38     	; 0x20a2 <__udivmodsi4_loop>
    20c8:	60 95       	com	r22
    20ca:	70 95       	com	r23
    20cc:	80 95       	com	r24
    20ce:	90 95       	com	r25
    20d0:	9b 01       	movw	r18, r22
    20d2:	ac 01       	movw	r20, r24
    20d4:	bd 01       	movw	r22, r26
    20d6:	cf 01       	movw	r24, r30
    20d8:	08 95       	ret

000020da <__tablejump2__>:
    20da:	ee 0f       	add	r30, r30
    20dc:	ff 1f       	adc	r31, r31
    20de:	05 90       	lpm	r0, Z+
    20e0:	f4 91       	lpm	r31, Z
    20e2:	e0 2d       	mov	r30, r0
    20e4:	09 94       	ijmp

000020e6 <__muluhisi3>:
    20e6:	0e 94 7e 10 	call	0x20fc	; 0x20fc <__umulhisi3>
    20ea:	a5 9f       	mul	r26, r21
    20ec:	90 0d       	add	r25, r0
    20ee:	b4 9f       	mul	r27, r20
    20f0:	90 0d       	add	r25, r0
    20f2:	a4 9f       	mul	r26, r20
    20f4:	80 0d       	add	r24, r0
    20f6:	91 1d       	adc	r25, r1
    20f8:	11 24       	eor	r1, r1
    20fa:	08 95       	ret

000020fc <__umulhisi3>:
    20fc:	a2 9f       	mul	r26, r18
    20fe:	b0 01       	movw	r22, r0
    2100:	b3 9f       	mul	r27, r19
    2102:	c0 01       	movw	r24, r0
    2104:	a3 9f       	mul	r26, r19
    2106:	70 0d       	add	r23, r0
    2108:	81 1d       	adc	r24, r1
    210a:	11 24       	eor	r1, r1
    210c:	91 1d       	adc	r25, r1
    210e:	b2 9f       	mul	r27, r18
    2110:	70 0d       	add	r23, r0
    2112:	81 1d       	adc	r24, r1
    2114:	11 24       	eor	r1, r1
    2116:	91 1d       	adc	r25, r1
    2118:	08 95       	ret

0000211a <_exit>:
    211a:	f8 94       	cli

0000211c <__stop_program>:
    211c:	ff cf       	rjmp	.-2      	; 0x211c <__stop_program>
