
Robotarm.elf:     file format elf32-avr

Sections:
Idx Name          Size      VMA       LMA       File off  Algn
  0 .data         0000004a  00800100  0000211e  000021b2  2**0
                  CONTENTS, ALLOC, LOAD, DATA
  1 .text         0000211e  00000000  00000000  00000094  2**1
                  CONTENTS, ALLOC, LOAD, READONLY, CODE
  2 .bss          00000004  0080014a  0080014a  000021fc  2**0
                  ALLOC
  3 .comment      0000005c  00000000  00000000  000021fc  2**0
                  CONTENTS, READONLY
  4 .note.gnu.avr.deviceinfo 00000040  00000000  00000000  00002258  2**2
                  CONTENTS, READONLY
  5 .debug_aranges 00000258  00000000  00000000  00002298  2**0
                  CONTENTS, READONLY, DEBUGGING
  6 .debug_info   00003a89  00000000  00000000  000024f0  2**0
                  CONTENTS, READONLY, DEBUGGING
  7 .debug_abbrev 00001343  00000000  00000000  00005f79  2**0
                  CONTENTS, READONLY, DEBUGGING
  8 .debug_line   00001068  00000000  00000000  000072bc  2**0
                  CONTENTS, READONLY, DEBUGGING
  9 .debug_frame  000007bc  00000000  00000000  00008324  2**2
                  CONTENTS, READONLY, DEBUGGING
 10 .debug_str    0000102b  00000000  00000000  00008ae0  2**0
                  CONTENTS, READONLY, DEBUGGING
 11 .debug_loc    00001e47  00000000  00000000  00009b0b  2**0
                  CONTENTS, READONLY, DEBUGGING
 12 .debug_ranges 000001e8  00000000  00000000  0000b952  2**0
                  CONTENTS, READONLY, DEBUGGING

Disassembly of section .text:

00000000 <__vectors>:
       0:	0c 94 62 00 	jmp	0xc4	; 0xc4 <__ctors_end>
       4:	0c 94 8a 00 	jmp	0x114	; 0x114 <__bad_interrupt>
       8:	0c 94 8a 00 	jmp	0x114	; 0x114 <__bad_interrupt>
       c:	0c 94 8a 00 	jmp	0x114	; 0x114 <__bad_interrupt>
      10:	0c 94 8a 00 	jmp	0x114	; 0x114 <__bad_interrupt>
      14:	0c 94 8a 00 	jmp	0x114	; 0x114 <__bad_interrupt>
      18:	0c 94 8a 00 	jmp	0x114	; 0x114 <__bad_interrupt>
      1c:	0c 94 8a 00 	jmp	0x114	; 0x114 <__bad_interrupt>
      20:	0c 94 8a 00 	jmp	0x114	; 0x114 <__bad_interrupt>
      24:	0c 94 8a 00 	jmp	0x114	; 0x114 <__bad_interrupt>
      28:	0c 94 8a 00 	jmp	0x114	; 0x114 <__bad_interrupt>
      2c:	0c 94 8a 00 	jmp	0x114	; 0x114 <__bad_interrupt>
      30:	0c 94 8a 00 	jmp	0x114	; 0x114 <__bad_interrupt>
      34:	0c 94 95 07 	jmp	0xf2a	; 0xf2a <__vector_13>
      38:	0c 94 8a 00 	jmp	0x114	; 0x114 <__bad_interrupt>
      3c:	0c 94 8a 00 	jmp	0x114	; 0x114 <__bad_interrupt>
      40:	0c 94 8a 00 	jmp	0x114	; 0x114 <__bad_interrupt>
      44:	0c 94 8a 00 	jmp	0x114	; 0x114 <__bad_interrupt>
      48:	0c 94 8a 00 	jmp	0x114	; 0x114 <__bad_interrupt>
      4c:	0c 94 8a 00 	jmp	0x114	; 0x114 <__bad_interrupt>
      50:	0c 94 8a 00 	jmp	0x114	; 0x114 <__bad_interrupt>
      54:	0c 94 8a 00 	jmp	0x114	; 0x114 <__bad_interrupt>
      58:	0c 94 8a 00 	jmp	0x114	; 0x114 <__bad_interrupt>
      5c:	0c 94 8a 00 	jmp	0x114	; 0x114 <__bad_interrupt>
      60:	0c 94 8a 00 	jmp	0x114	; 0x114 <__bad_interrupt>
      64:	0c 94 8a 00 	jmp	0x114	; 0x114 <__bad_interrupt>
      68:	03 6e       	ori	r16, 0xE3	; 227
      6a:	db 36       	cpi	r29, 0x6B	; 107
      6c:	3d 9a       	sbi	0x07, 5	; 7
      6e:	99 99       	sbic	0x13, 1	; 19
      70:	99 3d       	cpi	r25, 0xD9	; 217
      72:	ab aa       	std	Y+51, r10	; 0x33
      74:	aa 2a       	or	r10, r26
      76:	3e 00       	.word	0x003e	; ????
      78:	00 00       	nop
      7a:	80 3f       	cpi	r24, 0xF0	; 240
      7c:	07 2c       	mov	r0, r7
      7e:	7a a5       	ldd	r23, Y+42	; 0x2a
      80:	ba 6c       	ori	r27, 0xCA	; 202
      82:	c5 90       	lpm	r12, Z+
      84:	da 3b       	cpi	r29, 0xBA	; 186
      86:	93 65       	ori	r25, 0x53	; 83
      88:	fc 8b       	std	Y+20, r31	; 0x14
      8a:	bc 53       	subi	r27, 0x3C	; 60
      8c:	f8 10       	cpse	r15, r8
      8e:	fd 3c       	cpi	r31, 0xCD	; 205
      90:	56 92       	lac	Z, r5
      92:	83 4d       	sbci	r24, 0xD3	; 211
      94:	bd 87       	std	Y+13, r27	; 0x0d
      96:	9d 3a       	cpi	r25, 0xAD	; 173
      98:	b6 3d       	cpi	r27, 0xD6	; 214
      9a:	cb c9       	rjmp	.-3178   	; 0xfffff432 <__eeprom_end+0xff7ef432>
      9c:	bf 5b       	subi	r27, 0xBF	; 191
      9e:	be 73       	andi	r27, 0x3E	; 62
      a0:	da 0f       	add	r29, r26
      a2:	c9 3f       	cpi	r28, 0xF9	; 249
      a4:	05 a8       	ldd	r0, Z+53	; 0x35
      a6:	4c cd       	rjmp	.-1384   	; 0xfffffb40 <__eeprom_end+0xff7efb40>
      a8:	b2 d4       	rcall	.+2404   	; 0xa0e <_ZN13Interpolation16setInterpolationEfffffffff+0xee>
      aa:	4e b9       	out	0x0e, r20	; 14
      ac:	38 36       	cpi	r19, 0x68	; 104
      ae:	a9 02       	muls	r26, r25
      b0:	0c 50       	subi	r16, 0x0C	; 12
      b2:	b9 91       	ld	r27, Y+
      b4:	86 88       	ldd	r8, Z+22	; 0x16
      b6:	08 3c       	cpi	r16, 0xC8	; 200
      b8:	a6 aa       	std	Z+54, r10	; 0x36
      ba:	aa 2a       	or	r10, r26
      bc:	be 00       	.word	0x00be	; ????
      be:	00 00       	nop
      c0:	80 3f       	cpi	r24, 0xF0	; 240

000000c2 <__ctors_start>:
      c2:	bb 07       	cpc	r27, r27

000000c4 <__ctors_end>:
      c4:	11 24       	eor	r1, r1
      c6:	1f be       	out	0x3f, r1	; 63
      c8:	cf ef       	ldi	r28, 0xFF	; 255
      ca:	d8 e0       	ldi	r29, 0x08	; 8
      cc:	de bf       	out	0x3e, r29	; 62
      ce:	cd bf       	out	0x3d, r28	; 61

000000d0 <__do_copy_data>:
      d0:	11 e0       	ldi	r17, 0x01	; 1
      d2:	a0 e0       	ldi	r26, 0x00	; 0
      d4:	b1 e0       	ldi	r27, 0x01	; 1
      d6:	ee e1       	ldi	r30, 0x1E	; 30
      d8:	f1 e2       	ldi	r31, 0x21	; 33
      da:	02 c0       	rjmp	.+4      	; 0xe0 <__do_copy_data+0x10>
      dc:	05 90       	lpm	r0, Z+
      de:	0d 92       	st	X+, r0
      e0:	aa 34       	cpi	r26, 0x4A	; 74
      e2:	b1 07       	cpc	r27, r17
      e4:	d9 f7       	brne	.-10     	; 0xdc <__do_copy_data+0xc>

000000e6 <__do_clear_bss>:
      e6:	21 e0       	ldi	r18, 0x01	; 1
      e8:	aa e4       	ldi	r26, 0x4A	; 74
      ea:	b1 e0       	ldi	r27, 0x01	; 1
      ec:	01 c0       	rjmp	.+2      	; 0xf0 <.do_clear_bss_start>

000000ee <.do_clear_bss_loop>:
      ee:	1d 92       	st	X+, r1

000000f0 <.do_clear_bss_start>:
      f0:	ae 34       	cpi	r26, 0x4E	; 78
      f2:	b2 07       	cpc	r27, r18
      f4:	e1 f7       	brne	.-8      	; 0xee <.do_clear_bss_loop>

000000f6 <__do_global_ctors>:
      f6:	10 e0       	ldi	r17, 0x00	; 0
      f8:	c2 e6       	ldi	r28, 0x62	; 98
      fa:	d0 e0       	ldi	r29, 0x00	; 0
      fc:	04 c0       	rjmp	.+8      	; 0x106 <__do_global_ctors+0x10>
      fe:	21 97       	sbiw	r28, 0x01	; 1
     100:	fe 01       	movw	r30, r28
     102:	0e 94 68 0d 	call	0x1ad0	; 0x1ad0 <__tablejump2__>
     106:	c1 36       	cpi	r28, 0x61	; 97
     108:	d1 07       	cpc	r29, r17
     10a:	c9 f7       	brne	.-14     	; 0xfe <__do_global_ctors+0x8>
     10c:	0e 94 c0 07 	call	0xf80	; 0xf80 <main>
     110:	0c 94 8d 10 	jmp	0x211a	; 0x211a <_exit>

00000114 <__bad_interrupt>:
     114:	0c 94 00 00 	jmp	0	; 0x0 <__vectors>

00000118 <_ZN11armGeometryC1Ev>:
	return ymm_;
}

float armGeometry::getZmm() const{
	return zmm_;
}
     118:	08 95       	ret

0000011a <_ZNK11armGeometry9getRotRadEv>:
float armGeometry::getRotRad() const{
	return rot_;
     11a:	fc 01       	movw	r30, r24
     11c:	64 85       	ldd	r22, Z+12	; 0x0c
     11e:	75 85       	ldd	r23, Z+13	; 0x0d
     120:	86 85       	ldd	r24, Z+14	; 0x0e
     122:	97 85       	ldd	r25, Z+15	; 0x0f
}
     124:	08 95       	ret

00000126 <_ZNK11armGeometry9getLowRadEv>:

float armGeometry::getLowRad() const{
	return low_;
     126:	fc 01       	movw	r30, r24
     128:	60 89       	ldd	r22, Z+16	; 0x10
     12a:	71 89       	ldd	r23, Z+17	; 0x11
     12c:	82 89       	ldd	r24, Z+18	; 0x12
     12e:	93 89       	ldd	r25, Z+19	; 0x13
}
     130:	08 95       	ret

00000132 <_ZNK11armGeometry10getHighRadEv>:

float armGeometry::getHighRad() const{
	return high_;
     132:	fc 01       	movw	r30, r24
     134:	64 89       	ldd	r22, Z+20	; 0x14
     136:	75 89       	ldd	r23, Z+21	; 0x15
     138:	86 89       	ldd	r24, Z+22	; 0x16
     13a:	97 89       	ldd	r25, Z+23	; 0x17
}
     13c:	08 95       	ret

0000013e <_ZN11armGeometry12calculateAngEv>:

void armGeometry::calculateAng(){
     13e:	4f 92       	push	r4
     140:	5f 92       	push	r5
     142:	6f 92       	push	r6
     144:	7f 92       	push	r7
     146:	8f 92       	push	r8
     148:	9f 92       	push	r9
     14a:	af 92       	push	r10
     14c:	bf 92       	push	r11
     14e:	cf 92       	push	r12
     150:	df 92       	push	r13
     152:	ef 92       	push	r14
     154:	ff 92       	push	r15
     156:	cf 93       	push	r28
     158:	df 93       	push	r29
     15a:	cd b7       	in	r28, 0x3d	; 61
     15c:	de b7       	in	r29, 0x3e	; 62
     15e:	2a 97       	sbiw	r28, 0x0a	; 10
     160:	0f b6       	in	r0, 0x3f	; 63
     162:	f8 94       	cli
     164:	de bf       	out	0x3e, r29	; 62
     166:	0f be       	out	0x3f, r0	; 63
     168:	cd bf       	out	0x3d, r28	; 61
     16a:	9a 87       	std	Y+10, r25	; 0x0a
     16c:	89 87       	std	Y+9, r24	; 0x09
	//Top view radius
	float RTop = sqrt((xmm_*xmm_)+(ymm_*ymm_));
     16e:	fc 01       	movw	r30, r24
     170:	80 80       	ld	r8, Z
     172:	91 80       	ldd	r9, Z+1	; 0x01
     174:	a2 80       	ldd	r10, Z+2	; 0x02
     176:	b3 80       	ldd	r11, Z+3	; 0x03
     178:	c4 80       	ldd	r12, Z+4	; 0x04
     17a:	d5 80       	ldd	r13, Z+5	; 0x05
     17c:	e6 80       	ldd	r14, Z+6	; 0x06
     17e:	f7 80       	ldd	r15, Z+7	; 0x07
     180:	a5 01       	movw	r20, r10
     182:	94 01       	movw	r18, r8
     184:	c5 01       	movw	r24, r10
     186:	b4 01       	movw	r22, r8
     188:	0e 94 7e 0c 	call	0x18fc	; 0x18fc <__mulsf3>
     18c:	2b 01       	movw	r4, r22
     18e:	3c 01       	movw	r6, r24
     190:	a7 01       	movw	r20, r14
     192:	96 01       	movw	r18, r12
     194:	c7 01       	movw	r24, r14
     196:	b6 01       	movw	r22, r12
     198:	0e 94 7e 0c 	call	0x18fc	; 0x18fc <__mulsf3>
     19c:	9b 01       	movw	r18, r22
     19e:	ac 01       	movw	r20, r24
     1a0:	c3 01       	movw	r24, r6
     1a2:	b2 01       	movw	r22, r4
     1a4:	0e 94 f4 09 	call	0x13e8	; 0x13e8 <__addsf3>
     1a8:	0e 94 f1 0c 	call	0x19e2	; 0x19e2 <sqrt>
     1ac:	6b 01       	movw	r12, r22
     1ae:	7c 01       	movw	r14, r24
	//Side view radius from base to grapper
	float RSide = sqrt((RTop*RTop)+(zmm_*zmm_));
     1b0:	e9 85       	ldd	r30, Y+9	; 0x09
     1b2:	fa 85       	ldd	r31, Y+10	; 0x0a
     1b4:	40 84       	ldd	r4, Z+8	; 0x08
     1b6:	51 84       	ldd	r5, Z+9	; 0x09
     1b8:	62 84       	ldd	r6, Z+10	; 0x0a
     1ba:	73 84       	ldd	r7, Z+11	; 0x0b
     1bc:	9b 01       	movw	r18, r22
     1be:	ac 01       	movw	r20, r24
     1c0:	0e 94 7e 0c 	call	0x18fc	; 0x18fc <__mulsf3>
     1c4:	69 83       	std	Y+1, r22	; 0x01
     1c6:	7a 83       	std	Y+2, r23	; 0x02
     1c8:	8b 83       	std	Y+3, r24	; 0x03
     1ca:	9c 83       	std	Y+4, r25	; 0x04
     1cc:	a3 01       	movw	r20, r6
     1ce:	92 01       	movw	r18, r4
     1d0:	c3 01       	movw	r24, r6
     1d2:	b2 01       	movw	r22, r4
     1d4:	0e 94 7e 0c 	call	0x18fc	; 0x18fc <__mulsf3>
     1d8:	6d 83       	std	Y+5, r22	; 0x05
     1da:	7e 83       	std	Y+6, r23	; 0x06
     1dc:	8f 83       	std	Y+7, r24	; 0x07
     1de:	98 87       	std	Y+8, r25	; 0x08
     1e0:	2d 81       	ldd	r18, Y+5	; 0x05
     1e2:	3e 81       	ldd	r19, Y+6	; 0x06
     1e4:	4f 81       	ldd	r20, Y+7	; 0x07
     1e6:	58 85       	ldd	r21, Y+8	; 0x08
     1e8:	69 81       	ldd	r22, Y+1	; 0x01
     1ea:	7a 81       	ldd	r23, Y+2	; 0x02
     1ec:	8b 81       	ldd	r24, Y+3	; 0x03
     1ee:	9c 81       	ldd	r25, Y+4	; 0x04
     1f0:	0e 94 f4 09 	call	0x13e8	; 0x13e8 <__addsf3>
     1f4:	0e 94 f1 0c 	call	0x19e2	; 0x19e2 <sqrt>
     1f8:	69 83       	std	Y+1, r22	; 0x01
     1fa:	7a 83       	std	Y+2, r23	; 0x02
     1fc:	8b 83       	std	Y+3, r24	; 0x03
     1fe:	9c 83       	std	Y+4, r25	; 0x04
	
	//Angle of base stepper motor 
	rot_ =asin(xmm_ / RTop);
     200:	a7 01       	movw	r20, r14
     202:	96 01       	movw	r18, r12
     204:	c5 01       	movw	r24, r10
     206:	b4 01       	movw	r22, r8
     208:	0e 94 85 0a 	call	0x150a	; 0x150a <__divsf3>
     20c:	0e 94 60 0a 	call	0x14c0	; 0x14c0 <asin>
     210:	e9 85       	ldd	r30, Y+9	; 0x09
     212:	fa 85       	ldd	r31, Y+10	; 0x0a
     214:	64 87       	std	Z+12, r22	; 0x0c
     216:	75 87       	std	Z+13, r23	; 0x0d
     218:	86 87       	std	Z+14, r24	; 0x0e
     21a:	97 87       	std	Z+15, r25	; 0x0f
	//Angle of high stepper motor
	high_ = acos((RSide * 0.5) / 120.0) * 2.0;
     21c:	20 e0       	ldi	r18, 0x00	; 0
     21e:	30 e0       	ldi	r19, 0x00	; 0
     220:	40 e0       	ldi	r20, 0x00	; 0
     222:	5f e3       	ldi	r21, 0x3F	; 63
     224:	69 81       	ldd	r22, Y+1	; 0x01
     226:	7a 81       	ldd	r23, Y+2	; 0x02
     228:	8b 81       	ldd	r24, Y+3	; 0x03
     22a:	9c 81       	ldd	r25, Y+4	; 0x04
     22c:	0e 94 7e 0c 	call	0x18fc	; 0x18fc <__mulsf3>
     230:	20 e0       	ldi	r18, 0x00	; 0
     232:	30 e0       	ldi	r19, 0x00	; 0
     234:	40 ef       	ldi	r20, 0xF0	; 240
     236:	52 e4       	ldi	r21, 0x42	; 66
     238:	0e 94 85 0a 	call	0x150a	; 0x150a <__divsf3>
     23c:	0e 94 e2 09 	call	0x13c4	; 0x13c4 <acos>
     240:	9b 01       	movw	r18, r22
     242:	ac 01       	movw	r20, r24
     244:	0e 94 f4 09 	call	0x13e8	; 0x13e8 <__addsf3>
     248:	4b 01       	movw	r8, r22
     24a:	5c 01       	movw	r10, r24
     24c:	e9 85       	ldd	r30, Y+9	; 0x09
     24e:	fa 85       	ldd	r31, Y+10	; 0x0a
     250:	64 8b       	std	Z+20, r22	; 0x14
     252:	75 8b       	std	Z+21, r23	; 0x15
     254:	86 8b       	std	Z+22, r24	; 0x16
     256:	97 8b       	std	Z+23, r25	; 0x17
	//Angle of low stepper motor
	if (zmm_ > 0)
     258:	20 e0       	ldi	r18, 0x00	; 0
     25a:	30 e0       	ldi	r19, 0x00	; 0
     25c:	a9 01       	movw	r20, r18
     25e:	c3 01       	movw	r24, r6
     260:	b2 01       	movw	r22, r4
     262:	0e 94 79 0c 	call	0x18f2	; 0x18f2 <__gesf2>
     266:	18 16       	cp	r1, r24
     268:	5c f5       	brge	.+86     	; 0x2c0 <_ZN11armGeometry12calculateAngEv+0x182>
	{
		low_ = asin(RTop / RSide) + ((M_PI - high_) / 2.0) - (M_PI / 2.0);
     26a:	29 81       	ldd	r18, Y+1	; 0x01
     26c:	3a 81       	ldd	r19, Y+2	; 0x02
     26e:	4b 81       	ldd	r20, Y+3	; 0x03
     270:	5c 81       	ldd	r21, Y+4	; 0x04
     272:	c7 01       	movw	r24, r14
     274:	b6 01       	movw	r22, r12
     276:	0e 94 85 0a 	call	0x150a	; 0x150a <__divsf3>
     27a:	0e 94 60 0a 	call	0x14c0	; 0x14c0 <asin>
     27e:	6b 01       	movw	r12, r22
     280:	7c 01       	movw	r14, r24
     282:	a5 01       	movw	r20, r10
     284:	94 01       	movw	r18, r8
     286:	6b ed       	ldi	r22, 0xDB	; 219
     288:	7f e0       	ldi	r23, 0x0F	; 15
     28a:	89 e4       	ldi	r24, 0x49	; 73
     28c:	90 e4       	ldi	r25, 0x40	; 64
     28e:	0e 94 f3 09 	call	0x13e6	; 0x13e6 <__subsf3>
     292:	20 e0       	ldi	r18, 0x00	; 0
     294:	30 e0       	ldi	r19, 0x00	; 0
     296:	40 e0       	ldi	r20, 0x00	; 0
     298:	5f e3       	ldi	r21, 0x3F	; 63
     29a:	0e 94 7e 0c 	call	0x18fc	; 0x18fc <__mulsf3>
     29e:	a7 01       	movw	r20, r14
     2a0:	96 01       	movw	r18, r12
     2a2:	0e 94 f4 09 	call	0x13e8	; 0x13e8 <__addsf3>
     2a6:	2b ed       	ldi	r18, 0xDB	; 219
     2a8:	3f e0       	ldi	r19, 0x0F	; 15
     2aa:	49 ec       	ldi	r20, 0xC9	; 201
     2ac:	5f e3       	ldi	r21, 0x3F	; 63
     2ae:	0e 94 f3 09 	call	0x13e6	; 0x13e6 <__subsf3>
     2b2:	e9 85       	ldd	r30, Y+9	; 0x09
     2b4:	fa 85       	ldd	r31, Y+10	; 0x0a
     2b6:	60 8b       	std	Z+16, r22	; 0x10
     2b8:	71 8b       	std	Z+17, r23	; 0x11
     2ba:	82 8b       	std	Z+18, r24	; 0x12
     2bc:	93 8b       	std	Z+19, r25	; 0x13
     2be:	36 c0       	rjmp	.+108    	; 0x32c <_ZN11armGeometry12calculateAngEv+0x1ee>
	} 
	else {
		low_ = M_PI - asin(RTop / RSide) + ((M_PI - high_) / 2.0) - (M_PI / 2.0);
     2c0:	29 81       	ldd	r18, Y+1	; 0x01
     2c2:	3a 81       	ldd	r19, Y+2	; 0x02
     2c4:	4b 81       	ldd	r20, Y+3	; 0x03
     2c6:	5c 81       	ldd	r21, Y+4	; 0x04
     2c8:	c7 01       	movw	r24, r14
     2ca:	b6 01       	movw	r22, r12
     2cc:	0e 94 85 0a 	call	0x150a	; 0x150a <__divsf3>
     2d0:	0e 94 60 0a 	call	0x14c0	; 0x14c0 <asin>
     2d4:	2b 01       	movw	r4, r22
     2d6:	3c 01       	movw	r6, r24
     2d8:	a5 01       	movw	r20, r10
     2da:	94 01       	movw	r18, r8
     2dc:	6b ed       	ldi	r22, 0xDB	; 219
     2de:	7f e0       	ldi	r23, 0x0F	; 15
     2e0:	89 e4       	ldi	r24, 0x49	; 73
     2e2:	90 e4       	ldi	r25, 0x40	; 64
     2e4:	0e 94 f3 09 	call	0x13e6	; 0x13e6 <__subsf3>
     2e8:	20 e0       	ldi	r18, 0x00	; 0
     2ea:	30 e0       	ldi	r19, 0x00	; 0
     2ec:	40 e0       	ldi	r20, 0x00	; 0
     2ee:	5f e3       	ldi	r21, 0x3F	; 63
     2f0:	0e 94 7e 0c 	call	0x18fc	; 0x18fc <__mulsf3>
     2f4:	6b 01       	movw	r12, r22
     2f6:	7c 01       	movw	r14, r24
     2f8:	a3 01       	movw	r20, r6
     2fa:	92 01       	movw	r18, r4
     2fc:	6b ed       	ldi	r22, 0xDB	; 219
     2fe:	7f e0       	ldi	r23, 0x0F	; 15
     300:	89 e4       	ldi	r24, 0x49	; 73
     302:	90 e4       	ldi	r25, 0x40	; 64
     304:	0e 94 f3 09 	call	0x13e6	; 0x13e6 <__subsf3>
     308:	9b 01       	movw	r18, r22
     30a:	ac 01       	movw	r20, r24
     30c:	c7 01       	movw	r24, r14
     30e:	b6 01       	movw	r22, r12
     310:	0e 94 f4 09 	call	0x13e8	; 0x13e8 <__addsf3>
     314:	2b ed       	ldi	r18, 0xDB	; 219
     316:	3f e0       	ldi	r19, 0x0F	; 15
     318:	49 ec       	ldi	r20, 0xC9	; 201
     31a:	5f e3       	ldi	r21, 0x3F	; 63
     31c:	0e 94 f3 09 	call	0x13e6	; 0x13e6 <__subsf3>
     320:	e9 85       	ldd	r30, Y+9	; 0x09
     322:	fa 85       	ldd	r31, Y+10	; 0x0a
     324:	60 8b       	std	Z+16, r22	; 0x10
     326:	71 8b       	std	Z+17, r23	; 0x11
     328:	82 8b       	std	Z+18, r24	; 0x12
     32a:	93 8b       	std	Z+19, r25	; 0x13
	}
	
	 //Correct higher Angle as it is mechanically bounded width lower Motor
	 high_ = high_ + low_;
     32c:	a5 01       	movw	r20, r10
     32e:	94 01       	movw	r18, r8
     330:	e9 85       	ldd	r30, Y+9	; 0x09
     332:	fa 85       	ldd	r31, Y+10	; 0x0a
     334:	60 89       	ldd	r22, Z+16	; 0x10
     336:	71 89       	ldd	r23, Z+17	; 0x11
     338:	82 89       	ldd	r24, Z+18	; 0x12
     33a:	93 89       	ldd	r25, Z+19	; 0x13
     33c:	0e 94 f4 09 	call	0x13e8	; 0x13e8 <__addsf3>
     340:	e9 85       	ldd	r30, Y+9	; 0x09
     342:	fa 85       	ldd	r31, Y+10	; 0x0a
     344:	64 8b       	std	Z+20, r22	; 0x14
     346:	75 8b       	std	Z+21, r23	; 0x15
     348:	86 8b       	std	Z+22, r24	; 0x16
     34a:	97 8b       	std	Z+23, r25	; 0x17
}
     34c:	2a 96       	adiw	r28, 0x0a	; 10
     34e:	0f b6       	in	r0, 0x3f	; 63
     350:	f8 94       	cli
     352:	de bf       	out	0x3e, r29	; 62
     354:	0f be       	out	0x3f, r0	; 63
     356:	cd bf       	out	0x3d, r28	; 61
     358:	df 91       	pop	r29
     35a:	cf 91       	pop	r28
     35c:	ff 90       	pop	r15
     35e:	ef 90       	pop	r14
     360:	df 90       	pop	r13
     362:	cf 90       	pop	r12
     364:	bf 90       	pop	r11
     366:	af 90       	pop	r10
     368:	9f 90       	pop	r9
     36a:	8f 90       	pop	r8
     36c:	7f 90       	pop	r7
     36e:	6f 90       	pop	r6
     370:	5f 90       	pop	r5
     372:	4f 90       	pop	r4
     374:	08 95       	ret

00000376 <_ZN11armGeometry3setEfff>:
#include <math.h>
armGeometry::armGeometry(){
	
}

void armGeometry::set(float xmm, float ymm, float zmm){
     376:	cf 92       	push	r12
     378:	df 92       	push	r13
     37a:	ef 92       	push	r14
     37c:	ff 92       	push	r15
     37e:	0f 93       	push	r16
     380:	1f 93       	push	r17
	xmm_ = xmm;
     382:	fc 01       	movw	r30, r24
     384:	40 83       	st	Z, r20
     386:	51 83       	std	Z+1, r21	; 0x01
     388:	62 83       	std	Z+2, r22	; 0x02
     38a:	73 83       	std	Z+3, r23	; 0x03
	ymm_ = ymm;
     38c:	04 83       	std	Z+4, r16	; 0x04
     38e:	15 83       	std	Z+5, r17	; 0x05
     390:	26 83       	std	Z+6, r18	; 0x06
     392:	37 83       	std	Z+7, r19	; 0x07
	zmm_ = zmm;
     394:	c0 86       	std	Z+8, r12	; 0x08
     396:	d1 86       	std	Z+9, r13	; 0x09
     398:	e2 86       	std	Z+10, r14	; 0x0a
     39a:	f3 86       	std	Z+11, r15	; 0x0b
	calculateAng();
     39c:	0e 94 9f 00 	call	0x13e	; 0x13e <_ZN11armGeometry12calculateAngEv>
}
     3a0:	1f 91       	pop	r17
     3a2:	0f 91       	pop	r16
     3a4:	ff 90       	pop	r15
     3a6:	ef 90       	pop	r14
     3a8:	df 90       	pop	r13
     3aa:	cf 90       	pop	r12
     3ac:	08 95       	ret

000003ae <_ZN13InterpolationC1Ev>:
  ePosmm_ = eStartmm_ + progress * eDelta_;
}

bool Interpolation::isFinished() const{
	return state_ !=0;
}
     3ae:	0f 93       	push	r16
     3b0:	1f 93       	push	r17
     3b2:	cf 93       	push	r28
     3b4:	df 93       	push	r29
     3b6:	00 d0       	rcall	.+0      	; 0x3b8 <_ZN13InterpolationC1Ev+0xa>
     3b8:	00 d0       	rcall	.+0      	; 0x3ba <_ZN13InterpolationC1Ev+0xc>
     3ba:	cd b7       	in	r28, 0x3d	; 61
     3bc:	de b7       	in	r29, 0x3e	; 62
     3be:	8c 01       	movw	r16, r24
     3c0:	05 96       	adiw	r24, 0x05	; 5
     3c2:	0e 94 58 07 	call	0xeb0	; 0xeb0 <_ZN7SysTimeC1Ev>
     3c6:	ce 01       	movw	r24, r28
     3c8:	01 96       	adiw	r24, 0x01	; 1
     3ca:	0e 94 58 07 	call	0xeb0	; 0xeb0 <_ZN7SysTimeC1Ev>
     3ce:	89 81       	ldd	r24, Y+1	; 0x01
     3d0:	9a 81       	ldd	r25, Y+2	; 0x02
     3d2:	ab 81       	ldd	r26, Y+3	; 0x03
     3d4:	bc 81       	ldd	r27, Y+4	; 0x04
     3d6:	f8 01       	movw	r30, r16
     3d8:	85 83       	std	Z+5, r24	; 0x05
     3da:	96 83       	std	Z+6, r25	; 0x06
     3dc:	a7 83       	std	Z+7, r26	; 0x07
     3de:	b0 87       	std	Z+8, r27	; 0x08
     3e0:	0f 90       	pop	r0
     3e2:	0f 90       	pop	r0
     3e4:	0f 90       	pop	r0
     3e6:	0f 90       	pop	r0
     3e8:	df 91       	pop	r29
     3ea:	cf 91       	pop	r28
     3ec:	1f 91       	pop	r17
     3ee:	0f 91       	pop	r16
     3f0:	08 95       	ret

000003f2 <_ZN13Interpolation16setInterpolationE5PointS0_f>:
     3f2:	2f 92       	push	r2
     3f4:	3f 92       	push	r3
     3f6:	4f 92       	push	r4
     3f8:	5f 92       	push	r5
     3fa:	6f 92       	push	r6
     3fc:	7f 92       	push	r7
     3fe:	8f 92       	push	r8
     400:	9f 92       	push	r9
     402:	af 92       	push	r10
     404:	bf 92       	push	r11
     406:	cf 92       	push	r12
     408:	df 92       	push	r13
     40a:	ef 92       	push	r14
     40c:	ff 92       	push	r15
     40e:	0f 93       	push	r16
     410:	1f 93       	push	r17
     412:	cf 93       	push	r28
     414:	df 93       	push	r29
     416:	cd b7       	in	r28, 0x3d	; 61
     418:	de b7       	in	r29, 0x3e	; 62
     41a:	e8 97       	sbiw	r28, 0x38	; 56
     41c:	0f b6       	in	r0, 0x3f	; 63
     41e:	f8 94       	cli
     420:	de bf       	out	0x3e, r29	; 62
     422:	0f be       	out	0x3f, r0	; 63
     424:	cd bf       	out	0x3d, r28	; 61
     426:	1c 01       	movw	r2, r24
     428:	89 82       	std	Y+1, r8	; 0x01
     42a:	9a 82       	std	Y+2, r9	; 0x02
     42c:	ab 82       	std	Y+3, r10	; 0x03
     42e:	bc 82       	std	Y+4, r11	; 0x04
     430:	cd 82       	std	Y+5, r12	; 0x05
     432:	de 82       	std	Y+6, r13	; 0x06
     434:	ef 82       	std	Y+7, r14	; 0x07
     436:	f8 86       	std	Y+8, r15	; 0x08
     438:	09 87       	std	Y+9, r16	; 0x09
     43a:	1a 87       	std	Y+10, r17	; 0x0a
     43c:	2b 87       	std	Y+11, r18	; 0x0b
     43e:	3c 87       	std	Y+12, r19	; 0x0c
     440:	4d 87       	std	Y+13, r20	; 0x0d
     442:	5e 87       	std	Y+14, r21	; 0x0e
     444:	6f 87       	std	Y+15, r22	; 0x0f
     446:	78 8b       	std	Y+16, r23	; 0x10
     448:	89 81       	ldd	r24, Y+1	; 0x01
     44a:	9a 81       	ldd	r25, Y+2	; 0x02
     44c:	ab 81       	ldd	r26, Y+3	; 0x03
     44e:	bc 81       	ldd	r27, Y+4	; 0x04
     450:	8d a3       	std	Y+37, r24	; 0x25
     452:	9e a3       	std	Y+38, r25	; 0x26
     454:	af a3       	std	Y+39, r26	; 0x27
     456:	b8 a7       	std	Y+40, r27	; 0x28
     458:	8d 81       	ldd	r24, Y+5	; 0x05
     45a:	9e 81       	ldd	r25, Y+6	; 0x06
     45c:	af 81       	ldd	r26, Y+7	; 0x07
     45e:	b8 85       	ldd	r27, Y+8	; 0x08
     460:	89 a7       	std	Y+41, r24	; 0x29
     462:	9a a7       	std	Y+42, r25	; 0x2a
     464:	ab a7       	std	Y+43, r26	; 0x2b
     466:	bc a7       	std	Y+44, r27	; 0x2c
     468:	89 85       	ldd	r24, Y+9	; 0x09
     46a:	9a 85       	ldd	r25, Y+10	; 0x0a
     46c:	ab 85       	ldd	r26, Y+11	; 0x0b
     46e:	bc 85       	ldd	r27, Y+12	; 0x0c
     470:	8d a7       	std	Y+45, r24	; 0x2d
     472:	9e a7       	std	Y+46, r25	; 0x2e
     474:	af a7       	std	Y+47, r26	; 0x2f
     476:	b8 ab       	std	Y+48, r27	; 0x30
     478:	8d 84       	ldd	r8, Y+13	; 0x0d
     47a:	9e 84       	ldd	r9, Y+14	; 0x0e
     47c:	af 84       	ldd	r10, Y+15	; 0x0f
     47e:	b8 88       	ldd	r11, Y+16	; 0x10
     480:	2d a1       	ldd	r18, Y+37	; 0x25
     482:	3e a1       	ldd	r19, Y+38	; 0x26
     484:	4f a1       	ldd	r20, Y+39	; 0x27
     486:	58 a5       	ldd	r21, Y+40	; 0x28
     488:	61 96       	adiw	r28, 0x11	; 17
     48a:	6c ad       	ldd	r22, Y+60	; 0x3c
     48c:	7d ad       	ldd	r23, Y+61	; 0x3d
     48e:	8e ad       	ldd	r24, Y+62	; 0x3e
     490:	9f ad       	ldd	r25, Y+63	; 0x3f
     492:	61 97       	sbiw	r28, 0x11	; 17
     494:	0e 94 f3 09 	call	0x13e6	; 0x13e6 <__subsf3>
     498:	69 8b       	std	Y+17, r22	; 0x11
     49a:	7a 8b       	std	Y+18, r23	; 0x12
     49c:	8b 8b       	std	Y+19, r24	; 0x13
     49e:	9c 8b       	std	Y+20, r25	; 0x14
     4a0:	29 a5       	ldd	r18, Y+41	; 0x29
     4a2:	3a a5       	ldd	r19, Y+42	; 0x2a
     4a4:	4b a5       	ldd	r20, Y+43	; 0x2b
     4a6:	5c a5       	ldd	r21, Y+44	; 0x2c
     4a8:	65 96       	adiw	r28, 0x15	; 21
     4aa:	6c ad       	ldd	r22, Y+60	; 0x3c
     4ac:	7d ad       	ldd	r23, Y+61	; 0x3d
     4ae:	8e ad       	ldd	r24, Y+62	; 0x3e
     4b0:	9f ad       	ldd	r25, Y+63	; 0x3f
     4b2:	65 97       	sbiw	r28, 0x15	; 21
     4b4:	0e 94 f3 09 	call	0x13e6	; 0x13e6 <__subsf3>
     4b8:	6d 8b       	std	Y+21, r22	; 0x15
     4ba:	7e 8b       	std	Y+22, r23	; 0x16
     4bc:	8f 8b       	std	Y+23, r24	; 0x17
     4be:	98 8f       	std	Y+24, r25	; 0x18
     4c0:	2d a5       	ldd	r18, Y+45	; 0x2d
     4c2:	3e a5       	ldd	r19, Y+46	; 0x2e
     4c4:	4f a5       	ldd	r20, Y+47	; 0x2f
     4c6:	58 a9       	ldd	r21, Y+48	; 0x30
     4c8:	69 96       	adiw	r28, 0x19	; 25
     4ca:	6c ad       	ldd	r22, Y+60	; 0x3c
     4cc:	7d ad       	ldd	r23, Y+61	; 0x3d
     4ce:	8e ad       	ldd	r24, Y+62	; 0x3e
     4d0:	9f ad       	ldd	r25, Y+63	; 0x3f
     4d2:	69 97       	sbiw	r28, 0x19	; 25
     4d4:	0e 94 f3 09 	call	0x13e6	; 0x13e6 <__subsf3>
     4d8:	69 8f       	std	Y+25, r22	; 0x19
     4da:	7a 8f       	std	Y+26, r23	; 0x1a
     4dc:	8b 8f       	std	Y+27, r24	; 0x1b
     4de:	9c 8f       	std	Y+28, r25	; 0x1c
     4e0:	a5 01       	movw	r20, r10
     4e2:	94 01       	movw	r18, r8
     4e4:	6d 96       	adiw	r28, 0x1d	; 29
     4e6:	6c ad       	ldd	r22, Y+60	; 0x3c
     4e8:	7d ad       	ldd	r23, Y+61	; 0x3d
     4ea:	8e ad       	ldd	r24, Y+62	; 0x3e
     4ec:	9f ad       	ldd	r25, Y+63	; 0x3f
     4ee:	6d 97       	sbiw	r28, 0x1d	; 29
     4f0:	0e 94 f3 09 	call	0x13e6	; 0x13e6 <__subsf3>
     4f4:	2b 01       	movw	r4, r22
     4f6:	3c 01       	movw	r6, r24
     4f8:	dc 01       	movw	r26, r24
     4fa:	cb 01       	movw	r24, r22
     4fc:	bf 77       	andi	r27, 0x7F	; 127
     4fe:	89 a3       	std	Y+33, r24	; 0x21
     500:	9a a3       	std	Y+34, r25	; 0x22
     502:	ab a3       	std	Y+35, r26	; 0x23
     504:	bc a3       	std	Y+36, r27	; 0x24
     506:	29 89       	ldd	r18, Y+17	; 0x11
     508:	3a 89       	ldd	r19, Y+18	; 0x12
     50a:	4b 89       	ldd	r20, Y+19	; 0x13
     50c:	5c 89       	ldd	r21, Y+20	; 0x14
     50e:	ca 01       	movw	r24, r20
     510:	b9 01       	movw	r22, r18
     512:	0e 94 7e 0c 	call	0x18fc	; 0x18fc <__mulsf3>
     516:	6d 8f       	std	Y+29, r22	; 0x1d
     518:	7e 8f       	std	Y+30, r23	; 0x1e
     51a:	8f 8f       	std	Y+31, r24	; 0x1f
     51c:	98 a3       	std	Y+32, r25	; 0x20
     51e:	2d 89       	ldd	r18, Y+21	; 0x15
     520:	3e 89       	ldd	r19, Y+22	; 0x16
     522:	4f 89       	ldd	r20, Y+23	; 0x17
     524:	58 8d       	ldd	r21, Y+24	; 0x18
     526:	ca 01       	movw	r24, r20
     528:	b9 01       	movw	r22, r18
     52a:	0e 94 7e 0c 	call	0x18fc	; 0x18fc <__mulsf3>
     52e:	69 ab       	std	Y+49, r22	; 0x31
     530:	7a ab       	std	Y+50, r23	; 0x32
     532:	8b ab       	std	Y+51, r24	; 0x33
     534:	9c ab       	std	Y+52, r25	; 0x34
     536:	9b 01       	movw	r18, r22
     538:	ac 01       	movw	r20, r24
     53a:	6d 8d       	ldd	r22, Y+29	; 0x1d
     53c:	7e 8d       	ldd	r23, Y+30	; 0x1e
     53e:	8f 8d       	ldd	r24, Y+31	; 0x1f
     540:	98 a1       	ldd	r25, Y+32	; 0x20
     542:	0e 94 f4 09 	call	0x13e8	; 0x13e8 <__addsf3>
     546:	6d ab       	std	Y+53, r22	; 0x35
     548:	7e ab       	std	Y+54, r23	; 0x36
     54a:	8f ab       	std	Y+55, r24	; 0x37
     54c:	98 af       	std	Y+56, r25	; 0x38
     54e:	29 8d       	ldd	r18, Y+25	; 0x19
     550:	3a 8d       	ldd	r19, Y+26	; 0x1a
     552:	4b 8d       	ldd	r20, Y+27	; 0x1b
     554:	5c 8d       	ldd	r21, Y+28	; 0x1c
     556:	ca 01       	movw	r24, r20
     558:	b9 01       	movw	r22, r18
     55a:	0e 94 7e 0c 	call	0x18fc	; 0x18fc <__mulsf3>
     55e:	6b 01       	movw	r12, r22
     560:	7c 01       	movw	r14, r24
     562:	29 a9       	ldd	r18, Y+49	; 0x31
     564:	3a a9       	ldd	r19, Y+50	; 0x32
     566:	4b a9       	ldd	r20, Y+51	; 0x33
     568:	5c a9       	ldd	r21, Y+52	; 0x34
     56a:	6d 8d       	ldd	r22, Y+29	; 0x1d
     56c:	7e 8d       	ldd	r23, Y+30	; 0x1e
     56e:	8f 8d       	ldd	r24, Y+31	; 0x1f
     570:	98 a1       	ldd	r25, Y+32	; 0x20
     572:	0e 94 f4 09 	call	0x13e8	; 0x13e8 <__addsf3>
     576:	6d 8f       	std	Y+29, r22	; 0x1d
     578:	7e 8f       	std	Y+30, r23	; 0x1e
     57a:	8f 8f       	std	Y+31, r24	; 0x1f
     57c:	98 a3       	std	Y+32, r25	; 0x20
     57e:	a7 01       	movw	r20, r14
     580:	96 01       	movw	r18, r12
     582:	6d 8d       	ldd	r22, Y+29	; 0x1d
     584:	7e 8d       	ldd	r23, Y+30	; 0x1e
     586:	8f 8d       	ldd	r24, Y+31	; 0x1f
     588:	98 a1       	ldd	r25, Y+32	; 0x20
     58a:	0e 94 f4 09 	call	0x13e8	; 0x13e8 <__addsf3>
     58e:	0e 94 f1 0c 	call	0x19e2	; 0x19e2 <sqrt>
     592:	c6 2e       	mov	r12, r22
     594:	d7 2e       	mov	r13, r23
     596:	e8 2e       	mov	r14, r24
     598:	f9 2e       	mov	r15, r25
     59a:	26 2f       	mov	r18, r22
     59c:	37 2f       	mov	r19, r23
     59e:	48 2f       	mov	r20, r24
     5a0:	59 2f       	mov	r21, r25
     5a2:	69 a1       	ldd	r22, Y+33	; 0x21
     5a4:	7a a1       	ldd	r23, Y+34	; 0x22
     5a6:	8b a1       	ldd	r24, Y+35	; 0x23
     5a8:	9c a1       	ldd	r25, Y+36	; 0x24
     5aa:	0e 94 79 0c 	call	0x18f2	; 0x18f2 <__gesf2>
     5ae:	18 16       	cp	r1, r24
     5b0:	24 f4       	brge	.+8      	; 0x5ba <__LOCK_REGION_LENGTH__+0x1ba>
     5b2:	c9 a0       	ldd	r12, Y+33	; 0x21
     5b4:	da a0       	ldd	r13, Y+34	; 0x22
     5b6:	eb a0       	ldd	r14, Y+35	; 0x23
     5b8:	fc a0       	ldd	r15, Y+36	; 0x24
     5ba:	20 e0       	ldi	r18, 0x00	; 0
     5bc:	30 e0       	ldi	r19, 0x00	; 0
     5be:	40 ea       	ldi	r20, 0xA0	; 160
     5c0:	50 e4       	ldi	r21, 0x40	; 64
     5c2:	a1 96       	adiw	r28, 0x21	; 33
     5c4:	6c ad       	ldd	r22, Y+60	; 0x3c
     5c6:	7d ad       	ldd	r23, Y+61	; 0x3d
     5c8:	8e ad       	ldd	r24, Y+62	; 0x3e
     5ca:	9f ad       	ldd	r25, Y+63	; 0x3f
     5cc:	a1 97       	sbiw	r28, 0x21	; 33
     5ce:	0e 94 7b 0a 	call	0x14f6	; 0x14f6 <__cmpsf2>
     5d2:	88 23       	and	r24, r24
     5d4:	64 f0       	brlt	.+24     	; 0x5ee <__LOCK_REGION_LENGTH__+0x1ee>
     5d6:	a1 96       	adiw	r28, 0x21	; 33
     5d8:	8c ad       	ldd	r24, Y+60	; 0x3c
     5da:	9d ad       	ldd	r25, Y+61	; 0x3d
     5dc:	ae ad       	ldd	r26, Y+62	; 0x3e
     5de:	bf ad       	ldd	r27, Y+63	; 0x3f
     5e0:	a1 97       	sbiw	r28, 0x21	; 33
     5e2:	f1 01       	movw	r30, r2
     5e4:	81 af       	std	Z+57, r24	; 0x39
     5e6:	92 af       	std	Z+58, r25	; 0x3a
     5e8:	a3 af       	std	Z+59, r26	; 0x3b
     5ea:	b4 af       	std	Z+60, r27	; 0x3c
     5ec:	13 c0       	rjmp	.+38     	; 0x614 <__LOCK_REGION_LENGTH__+0x214>
     5ee:	6c 2d       	mov	r22, r12
     5f0:	7d 2d       	mov	r23, r13
     5f2:	8e 2d       	mov	r24, r14
     5f4:	9f 2d       	mov	r25, r15
     5f6:	0e 94 f1 0c 	call	0x19e2	; 0x19e2 <sqrt>
     5fa:	20 e0       	ldi	r18, 0x00	; 0
     5fc:	30 e0       	ldi	r19, 0x00	; 0
     5fe:	40 e2       	ldi	r20, 0x20	; 32
     600:	51 e4       	ldi	r21, 0x41	; 65
     602:	0e 94 7e 0c 	call	0x18fc	; 0x18fc <__mulsf3>
     606:	d1 01       	movw	r26, r2
     608:	d9 96       	adiw	r26, 0x39	; 57
     60a:	6d 93       	st	X+, r22
     60c:	7d 93       	st	X+, r23
     60e:	8d 93       	st	X+, r24
     610:	9c 93       	st	X, r25
     612:	dc 97       	sbiw	r26, 0x3c	; 60
     614:	20 e0       	ldi	r18, 0x00	; 0
     616:	30 e0       	ldi	r19, 0x00	; 0
     618:	40 ea       	ldi	r20, 0xA0	; 160
     61a:	50 e4       	ldi	r21, 0x40	; 64
     61c:	f1 01       	movw	r30, r2
     61e:	61 ad       	ldd	r22, Z+57	; 0x39
     620:	72 ad       	ldd	r23, Z+58	; 0x3a
     622:	83 ad       	ldd	r24, Z+59	; 0x3b
     624:	94 ad       	ldd	r25, Z+60	; 0x3c
     626:	0e 94 7b 0a 	call	0x14f6	; 0x14f6 <__cmpsf2>
     62a:	88 23       	and	r24, r24
     62c:	4c f4       	brge	.+18     	; 0x640 <__LOCK_REGION_LENGTH__+0x240>
     62e:	80 e0       	ldi	r24, 0x00	; 0
     630:	90 e0       	ldi	r25, 0x00	; 0
     632:	a0 ea       	ldi	r26, 0xA0	; 160
     634:	b0 e4       	ldi	r27, 0x40	; 64
     636:	f1 01       	movw	r30, r2
     638:	81 af       	std	Z+57, r24	; 0x39
     63a:	92 af       	std	Z+58, r25	; 0x3a
     63c:	a3 af       	std	Z+59, r26	; 0x3b
     63e:	b4 af       	std	Z+60, r27	; 0x3c
     640:	81 01       	movw	r16, r2
     642:	03 5c       	subi	r16, 0xC3	; 195
     644:	1f 4f       	sbci	r17, 0xFF	; 255
     646:	2c 2d       	mov	r18, r12
     648:	3d 2d       	mov	r19, r13
     64a:	4e 2d       	mov	r20, r14
     64c:	5f 2d       	mov	r21, r15
     64e:	d1 01       	movw	r26, r2
     650:	d9 96       	adiw	r26, 0x39	; 57
     652:	6d 91       	ld	r22, X+
     654:	7d 91       	ld	r23, X+
     656:	8d 91       	ld	r24, X+
     658:	9c 91       	ld	r25, X
     65a:	dc 97       	sbiw	r26, 0x3c	; 60
     65c:	0e 94 85 0a 	call	0x150a	; 0x150a <__divsf3>
     660:	f8 01       	movw	r30, r16
     662:	60 83       	st	Z, r22
     664:	71 83       	std	Z+1, r23	; 0x01
     666:	82 83       	std	Z+2, r24	; 0x02
     668:	93 83       	std	Z+3, r25	; 0x03
     66a:	8d a1       	ldd	r24, Y+37	; 0x25
     66c:	9e a1       	ldd	r25, Y+38	; 0x26
     66e:	af a1       	ldd	r26, Y+39	; 0x27
     670:	b8 a5       	ldd	r27, Y+40	; 0x28
     672:	f1 01       	movw	r30, r2
     674:	81 87       	std	Z+9, r24	; 0x09
     676:	92 87       	std	Z+10, r25	; 0x0a
     678:	a3 87       	std	Z+11, r26	; 0x0b
     67a:	b4 87       	std	Z+12, r27	; 0x0c
     67c:	89 a5       	ldd	r24, Y+41	; 0x29
     67e:	9a a5       	ldd	r25, Y+42	; 0x2a
     680:	ab a5       	ldd	r26, Y+43	; 0x2b
     682:	bc a5       	ldd	r27, Y+44	; 0x2c
     684:	85 87       	std	Z+13, r24	; 0x0d
     686:	96 87       	std	Z+14, r25	; 0x0e
     688:	a7 87       	std	Z+15, r26	; 0x0f
     68a:	b0 8b       	std	Z+16, r27	; 0x10
     68c:	8d a5       	ldd	r24, Y+45	; 0x2d
     68e:	9e a5       	ldd	r25, Y+46	; 0x2e
     690:	af a5       	ldd	r26, Y+47	; 0x2f
     692:	b8 a9       	ldd	r27, Y+48	; 0x30
     694:	81 8b       	std	Z+17, r24	; 0x11
     696:	92 8b       	std	Z+18, r25	; 0x12
     698:	a3 8b       	std	Z+19, r26	; 0x13
     69a:	b4 8b       	std	Z+20, r27	; 0x14
     69c:	85 8a       	std	Z+21, r8	; 0x15
     69e:	96 8a       	std	Z+22, r9	; 0x16
     6a0:	a7 8a       	std	Z+23, r10	; 0x17
     6a2:	b0 8e       	std	Z+24, r11	; 0x18
     6a4:	89 89       	ldd	r24, Y+17	; 0x11
     6a6:	9a 89       	ldd	r25, Y+18	; 0x12
     6a8:	ab 89       	ldd	r26, Y+19	; 0x13
     6aa:	bc 89       	ldd	r27, Y+20	; 0x14
     6ac:	81 8f       	std	Z+25, r24	; 0x19
     6ae:	92 8f       	std	Z+26, r25	; 0x1a
     6b0:	a3 8f       	std	Z+27, r26	; 0x1b
     6b2:	b4 8f       	std	Z+28, r27	; 0x1c
     6b4:	8d 89       	ldd	r24, Y+21	; 0x15
     6b6:	9e 89       	ldd	r25, Y+22	; 0x16
     6b8:	af 89       	ldd	r26, Y+23	; 0x17
     6ba:	b8 8d       	ldd	r27, Y+24	; 0x18
     6bc:	85 8f       	std	Z+29, r24	; 0x1d
     6be:	96 8f       	std	Z+30, r25	; 0x1e
     6c0:	a7 8f       	std	Z+31, r26	; 0x1f
     6c2:	b0 a3       	std	Z+32, r27	; 0x20
     6c4:	89 8d       	ldd	r24, Y+25	; 0x19
     6c6:	9a 8d       	ldd	r25, Y+26	; 0x1a
     6c8:	ab 8d       	ldd	r26, Y+27	; 0x1b
     6ca:	bc 8d       	ldd	r27, Y+28	; 0x1c
     6cc:	81 a3       	std	Z+33, r24	; 0x21
     6ce:	92 a3       	std	Z+34, r25	; 0x22
     6d0:	a3 a3       	std	Z+35, r26	; 0x23
     6d2:	b4 a3       	std	Z+36, r27	; 0x24
     6d4:	45 a2       	std	Z+37, r4	; 0x25
     6d6:	56 a2       	std	Z+38, r5	; 0x26
     6d8:	67 a2       	std	Z+39, r6	; 0x27
     6da:	70 a6       	std	Z+40, r7	; 0x28
     6dc:	10 82       	st	Z, r1
     6de:	c1 01       	movw	r24, r2
     6e0:	05 96       	adiw	r24, 0x05	; 5
     6e2:	0e 94 77 07 	call	0xeee	; 0xeee <_ZN7SysTime5MicroEv>
     6e6:	f1 01       	movw	r30, r2
     6e8:	61 83       	std	Z+1, r22	; 0x01
     6ea:	72 83       	std	Z+2, r23	; 0x02
     6ec:	83 83       	std	Z+3, r24	; 0x03
     6ee:	94 83       	std	Z+4, r25	; 0x04
     6f0:	e8 96       	adiw	r28, 0x38	; 56
     6f2:	0f b6       	in	r0, 0x3f	; 63
     6f4:	f8 94       	cli
     6f6:	de bf       	out	0x3e, r29	; 62
     6f8:	0f be       	out	0x3f, r0	; 63
     6fa:	cd bf       	out	0x3d, r28	; 61
     6fc:	df 91       	pop	r29
     6fe:	cf 91       	pop	r28
     700:	1f 91       	pop	r17
     702:	0f 91       	pop	r16
     704:	ff 90       	pop	r15
     706:	ef 90       	pop	r14
     708:	df 90       	pop	r13
     70a:	cf 90       	pop	r12
     70c:	bf 90       	pop	r11
     70e:	af 90       	pop	r10
     710:	9f 90       	pop	r9
     712:	8f 90       	pop	r8
     714:	7f 90       	pop	r7
     716:	6f 90       	pop	r6
     718:	5f 90       	pop	r5
     71a:	4f 90       	pop	r4
     71c:	3f 90       	pop	r3
     71e:	2f 90       	pop	r2
     720:	08 95       	ret

00000722 <_ZN13Interpolation16setInterpolationE5Pointf>:
     722:	6f 92       	push	r6
     724:	7f 92       	push	r7
     726:	8f 92       	push	r8
     728:	9f 92       	push	r9
     72a:	af 92       	push	r10
     72c:	bf 92       	push	r11
     72e:	cf 92       	push	r12
     730:	df 92       	push	r13
     732:	ef 92       	push	r14
     734:	ff 92       	push	r15
     736:	0f 93       	push	r16
     738:	1f 93       	push	r17
     73a:	cf 93       	push	r28
     73c:	df 93       	push	r29
     73e:	cd b7       	in	r28, 0x3d	; 61
     740:	de b7       	in	r29, 0x3e	; 62
     742:	a0 97       	sbiw	r28, 0x20	; 32
     744:	0f b6       	in	r0, 0x3f	; 63
     746:	f8 94       	cli
     748:	de bf       	out	0x3e, r29	; 62
     74a:	0f be       	out	0x3f, r0	; 63
     74c:	cd bf       	out	0x3d, r28	; 61
     74e:	3c 01       	movw	r6, r24
     750:	89 8a       	std	Y+17, r8	; 0x11
     752:	9a 8a       	std	Y+18, r9	; 0x12
     754:	ab 8a       	std	Y+19, r10	; 0x13
     756:	bc 8a       	std	Y+20, r11	; 0x14
     758:	cd 8a       	std	Y+21, r12	; 0x15
     75a:	de 8a       	std	Y+22, r13	; 0x16
     75c:	ef 8a       	std	Y+23, r14	; 0x17
     75e:	f8 8e       	std	Y+24, r15	; 0x18
     760:	09 8f       	std	Y+25, r16	; 0x19
     762:	1a 8f       	std	Y+26, r17	; 0x1a
     764:	2b 8f       	std	Y+27, r18	; 0x1b
     766:	3c 8f       	std	Y+28, r19	; 0x1c
     768:	4d 8f       	std	Y+29, r20	; 0x1d
     76a:	5e 8f       	std	Y+30, r21	; 0x1e
     76c:	6f 8f       	std	Y+31, r22	; 0x1f
     76e:	78 a3       	std	Y+32, r23	; 0x20
     770:	19 a9       	ldd	r17, Y+49	; 0x31
     772:	0a a9       	ldd	r16, Y+50	; 0x32
     774:	fb a8       	ldd	r15, Y+51	; 0x33
     776:	ec a8       	ldd	r14, Y+52	; 0x34
     778:	fc 01       	movw	r30, r24
     77a:	21 8d       	ldd	r18, Z+25	; 0x19
     77c:	32 8d       	ldd	r19, Z+26	; 0x1a
     77e:	43 8d       	ldd	r20, Z+27	; 0x1b
     780:	54 8d       	ldd	r21, Z+28	; 0x1c
     782:	61 85       	ldd	r22, Z+9	; 0x09
     784:	72 85       	ldd	r23, Z+10	; 0x0a
     786:	83 85       	ldd	r24, Z+11	; 0x0b
     788:	94 85       	ldd	r25, Z+12	; 0x0c
     78a:	0e 94 f4 09 	call	0x13e8	; 0x13e8 <__addsf3>
     78e:	69 83       	std	Y+1, r22	; 0x01
     790:	7a 83       	std	Y+2, r23	; 0x02
     792:	8b 83       	std	Y+3, r24	; 0x03
     794:	9c 83       	std	Y+4, r25	; 0x04
     796:	f3 01       	movw	r30, r6
     798:	25 8d       	ldd	r18, Z+29	; 0x1d
     79a:	36 8d       	ldd	r19, Z+30	; 0x1e
     79c:	47 8d       	ldd	r20, Z+31	; 0x1f
     79e:	50 a1       	ldd	r21, Z+32	; 0x20
     7a0:	65 85       	ldd	r22, Z+13	; 0x0d
     7a2:	76 85       	ldd	r23, Z+14	; 0x0e
     7a4:	87 85       	ldd	r24, Z+15	; 0x0f
     7a6:	90 89       	ldd	r25, Z+16	; 0x10
     7a8:	0e 94 f4 09 	call	0x13e8	; 0x13e8 <__addsf3>
     7ac:	6d 83       	std	Y+5, r22	; 0x05
     7ae:	7e 83       	std	Y+6, r23	; 0x06
     7b0:	8f 83       	std	Y+7, r24	; 0x07
     7b2:	98 87       	std	Y+8, r25	; 0x08
     7b4:	f3 01       	movw	r30, r6
     7b6:	21 a1       	ldd	r18, Z+33	; 0x21
     7b8:	32 a1       	ldd	r19, Z+34	; 0x22
     7ba:	43 a1       	ldd	r20, Z+35	; 0x23
     7bc:	54 a1       	ldd	r21, Z+36	; 0x24
     7be:	61 89       	ldd	r22, Z+17	; 0x11
     7c0:	72 89       	ldd	r23, Z+18	; 0x12
     7c2:	83 89       	ldd	r24, Z+19	; 0x13
     7c4:	94 89       	ldd	r25, Z+20	; 0x14
     7c6:	0e 94 f4 09 	call	0x13e8	; 0x13e8 <__addsf3>
     7ca:	69 87       	std	Y+9, r22	; 0x09
     7cc:	7a 87       	std	Y+10, r23	; 0x0a
     7ce:	8b 87       	std	Y+11, r24	; 0x0b
     7d0:	9c 87       	std	Y+12, r25	; 0x0c
     7d2:	f3 01       	movw	r30, r6
     7d4:	25 a1       	ldd	r18, Z+37	; 0x25
     7d6:	36 a1       	ldd	r19, Z+38	; 0x26
     7d8:	47 a1       	ldd	r20, Z+39	; 0x27
     7da:	50 a5       	ldd	r21, Z+40	; 0x28
     7dc:	65 89       	ldd	r22, Z+21	; 0x15
     7de:	76 89       	ldd	r23, Z+22	; 0x16
     7e0:	87 89       	ldd	r24, Z+23	; 0x17
     7e2:	90 8d       	ldd	r25, Z+24	; 0x18
     7e4:	0e 94 f4 09 	call	0x13e8	; 0x13e8 <__addsf3>
     7e8:	6d 87       	std	Y+13, r22	; 0x0d
     7ea:	7e 87       	std	Y+14, r23	; 0x0e
     7ec:	8f 87       	std	Y+15, r24	; 0x0f
     7ee:	98 8b       	std	Y+16, r25	; 0x10
     7f0:	ef 92       	push	r14
     7f2:	ff 92       	push	r15
     7f4:	0f 93       	push	r16
     7f6:	1f 93       	push	r17
     7f8:	8d b7       	in	r24, 0x3d	; 61
     7fa:	9e b7       	in	r25, 0x3e	; 62
     7fc:	40 97       	sbiw	r24, 0x10	; 16
     7fe:	0f b6       	in	r0, 0x3f	; 63
     800:	f8 94       	cli
     802:	9e bf       	out	0x3e, r25	; 62
     804:	0f be       	out	0x3f, r0	; 63
     806:	8d bf       	out	0x3d, r24	; 61
     808:	ad b7       	in	r26, 0x3d	; 61
     80a:	be b7       	in	r27, 0x3e	; 62
     80c:	11 96       	adiw	r26, 0x01	; 1
     80e:	80 e1       	ldi	r24, 0x10	; 16
     810:	fe 01       	movw	r30, r28
     812:	71 96       	adiw	r30, 0x11	; 17
     814:	01 90       	ld	r0, Z+
     816:	0d 92       	st	X+, r0
     818:	8a 95       	dec	r24
     81a:	e1 f7       	brne	.-8      	; 0x814 <_ZN13Interpolation16setInterpolationE5Pointf+0xf2>
     81c:	89 80       	ldd	r8, Y+1	; 0x01
     81e:	9a 80       	ldd	r9, Y+2	; 0x02
     820:	ab 80       	ldd	r10, Y+3	; 0x03
     822:	bc 80       	ldd	r11, Y+4	; 0x04
     824:	cd 80       	ldd	r12, Y+5	; 0x05
     826:	de 80       	ldd	r13, Y+6	; 0x06
     828:	ef 80       	ldd	r14, Y+7	; 0x07
     82a:	f8 84       	ldd	r15, Y+8	; 0x08
     82c:	09 85       	ldd	r16, Y+9	; 0x09
     82e:	1a 85       	ldd	r17, Y+10	; 0x0a
     830:	2b 85       	ldd	r18, Y+11	; 0x0b
     832:	3c 85       	ldd	r19, Y+12	; 0x0c
     834:	4d 85       	ldd	r20, Y+13	; 0x0d
     836:	5e 85       	ldd	r21, Y+14	; 0x0e
     838:	6f 85       	ldd	r22, Y+15	; 0x0f
     83a:	78 89       	ldd	r23, Y+16	; 0x10
     83c:	c3 01       	movw	r24, r6
     83e:	0e 94 f9 01 	call	0x3f2	; 0x3f2 <_ZN13Interpolation16setInterpolationE5PointS0_f>
     842:	0f b6       	in	r0, 0x3f	; 63
     844:	f8 94       	cli
     846:	de bf       	out	0x3e, r29	; 62
     848:	0f be       	out	0x3f, r0	; 63
     84a:	cd bf       	out	0x3d, r28	; 61
     84c:	a0 96       	adiw	r28, 0x20	; 32
     84e:	0f b6       	in	r0, 0x3f	; 63
     850:	f8 94       	cli
     852:	de bf       	out	0x3e, r29	; 62
     854:	0f be       	out	0x3f, r0	; 63
     856:	cd bf       	out	0x3d, r28	; 61
     858:	df 91       	pop	r29
     85a:	cf 91       	pop	r28
     85c:	1f 91       	pop	r17
     85e:	0f 91       	pop	r16
     860:	ff 90       	pop	r15
     862:	ef 90       	pop	r14
     864:	df 90       	pop	r13
     866:	cf 90       	pop	r12
     868:	bf 90       	pop	r11
     86a:	af 90       	pop	r10
     86c:	9f 90       	pop	r9
     86e:	8f 90       	pop	r8
     870:	7f 90       	pop	r7
     872:	6f 90       	pop	r6
     874:	08 95       	ret

00000876 <_ZN13Interpolation16setInterpolationEfffff>:
     876:	8f 92       	push	r8
     878:	9f 92       	push	r9
     87a:	af 92       	push	r10
     87c:	bf 92       	push	r11
     87e:	cf 92       	push	r12
     880:	df 92       	push	r13
     882:	ef 92       	push	r14
     884:	ff 92       	push	r15
     886:	0f 93       	push	r16
     888:	1f 93       	push	r17
     88a:	cf 93       	push	r28
     88c:	df 93       	push	r29
     88e:	cd b7       	in	r28, 0x3d	; 61
     890:	de b7       	in	r29, 0x3e	; 62
     892:	60 97       	sbiw	r28, 0x10	; 16
     894:	0f b6       	in	r0, 0x3f	; 63
     896:	f8 94       	cli
     898:	de bf       	out	0x3e, r29	; 62
     89a:	0f be       	out	0x3f, r0	; 63
     89c:	cd bf       	out	0x3d, r28	; 61
     89e:	ef 8d       	ldd	r30, Y+31	; 0x1f
     8a0:	f8 a1       	ldd	r31, Y+32	; 0x20
     8a2:	a9 a1       	ldd	r26, Y+33	; 0x21
     8a4:	ba a1       	ldd	r27, Y+34	; 0x22
     8a6:	49 83       	std	Y+1, r20	; 0x01
     8a8:	5a 83       	std	Y+2, r21	; 0x02
     8aa:	6b 83       	std	Y+3, r22	; 0x03
     8ac:	7c 83       	std	Y+4, r23	; 0x04
     8ae:	0d 83       	std	Y+5, r16	; 0x05
     8b0:	1e 83       	std	Y+6, r17	; 0x06
     8b2:	2f 83       	std	Y+7, r18	; 0x07
     8b4:	38 87       	std	Y+8, r19	; 0x08
     8b6:	c9 86       	std	Y+9, r12	; 0x09
     8b8:	da 86       	std	Y+10, r13	; 0x0a
     8ba:	eb 86       	std	Y+11, r14	; 0x0b
     8bc:	fc 86       	std	Y+12, r15	; 0x0c
     8be:	8d 86       	std	Y+13, r8	; 0x0d
     8c0:	9e 86       	std	Y+14, r9	; 0x0e
     8c2:	af 86       	std	Y+15, r10	; 0x0f
     8c4:	b8 8a       	std	Y+16, r11	; 0x10
     8c6:	bf 93       	push	r27
     8c8:	af 93       	push	r26
     8ca:	ff 93       	push	r31
     8cc:	ef 93       	push	r30
     8ce:	89 80       	ldd	r8, Y+1	; 0x01
     8d0:	9a 80       	ldd	r9, Y+2	; 0x02
     8d2:	ab 80       	ldd	r10, Y+3	; 0x03
     8d4:	bc 80       	ldd	r11, Y+4	; 0x04
     8d6:	cd 80       	ldd	r12, Y+5	; 0x05
     8d8:	de 80       	ldd	r13, Y+6	; 0x06
     8da:	ef 80       	ldd	r14, Y+7	; 0x07
     8dc:	f8 84       	ldd	r15, Y+8	; 0x08
     8de:	09 85       	ldd	r16, Y+9	; 0x09
     8e0:	1a 85       	ldd	r17, Y+10	; 0x0a
     8e2:	2b 85       	ldd	r18, Y+11	; 0x0b
     8e4:	3c 85       	ldd	r19, Y+12	; 0x0c
     8e6:	4d 85       	ldd	r20, Y+13	; 0x0d
     8e8:	5e 85       	ldd	r21, Y+14	; 0x0e
     8ea:	6f 85       	ldd	r22, Y+15	; 0x0f
     8ec:	78 89       	ldd	r23, Y+16	; 0x10
     8ee:	0e 94 91 03 	call	0x722	; 0x722 <_ZN13Interpolation16setInterpolationE5Pointf>
     8f2:	0f 90       	pop	r0
     8f4:	0f 90       	pop	r0
     8f6:	0f 90       	pop	r0
     8f8:	0f 90       	pop	r0
     8fa:	60 96       	adiw	r28, 0x10	; 16
     8fc:	0f b6       	in	r0, 0x3f	; 63
     8fe:	f8 94       	cli
     900:	de bf       	out	0x3e, r29	; 62
     902:	0f be       	out	0x3f, r0	; 63
     904:	cd bf       	out	0x3d, r28	; 61
     906:	df 91       	pop	r29
     908:	cf 91       	pop	r28
     90a:	1f 91       	pop	r17
     90c:	0f 91       	pop	r16
     90e:	ff 90       	pop	r15
     910:	ef 90       	pop	r14
     912:	df 90       	pop	r13
     914:	cf 90       	pop	r12
     916:	bf 90       	pop	r11
     918:	af 90       	pop	r10
     91a:	9f 90       	pop	r9
     91c:	8f 90       	pop	r8
     91e:	08 95       	ret

00000920 <_ZN13Interpolation16setInterpolationEfffffffff>:
     920:	8f 92       	push	r8
     922:	9f 92       	push	r9
     924:	af 92       	push	r10
     926:	bf 92       	push	r11
     928:	cf 92       	push	r12
     92a:	df 92       	push	r13
     92c:	ef 92       	push	r14
     92e:	ff 92       	push	r15
     930:	0f 93       	push	r16
     932:	1f 93       	push	r17
     934:	cf 93       	push	r28
     936:	df 93       	push	r29
     938:	cd b7       	in	r28, 0x3d	; 61
     93a:	de b7       	in	r29, 0x3e	; 62
     93c:	a0 97       	sbiw	r28, 0x20	; 32
     93e:	0f b6       	in	r0, 0x3f	; 63
     940:	f8 94       	cli
     942:	de bf       	out	0x3e, r29	; 62
     944:	0f be       	out	0x3f, r0	; 63
     946:	cd bf       	out	0x3d, r28	; 61
     948:	af ad       	ldd	r26, Y+63	; 0x3f
     94a:	21 96       	adiw	r28, 0x01	; 1
     94c:	bf ad       	ldd	r27, Y+63	; 0x3f
     94e:	21 97       	sbiw	r28, 0x01	; 1
     950:	22 96       	adiw	r28, 0x02	; 2
     952:	ef ad       	ldd	r30, Y+63	; 0x3f
     954:	22 97       	sbiw	r28, 0x02	; 2
     956:	23 96       	adiw	r28, 0x03	; 3
     958:	ff ad       	ldd	r31, Y+63	; 0x3f
     95a:	23 97       	sbiw	r28, 0x03	; 3
     95c:	49 83       	std	Y+1, r20	; 0x01
     95e:	5a 83       	std	Y+2, r21	; 0x02
     960:	6b 83       	std	Y+3, r22	; 0x03
     962:	7c 83       	std	Y+4, r23	; 0x04
     964:	0d 83       	std	Y+5, r16	; 0x05
     966:	1e 83       	std	Y+6, r17	; 0x06
     968:	2f 83       	std	Y+7, r18	; 0x07
     96a:	38 87       	std	Y+8, r19	; 0x08
     96c:	c9 86       	std	Y+9, r12	; 0x09
     96e:	da 86       	std	Y+10, r13	; 0x0a
     970:	eb 86       	std	Y+11, r14	; 0x0b
     972:	fc 86       	std	Y+12, r15	; 0x0c
     974:	8d 86       	std	Y+13, r8	; 0x0d
     976:	9e 86       	std	Y+14, r9	; 0x0e
     978:	af 86       	std	Y+15, r10	; 0x0f
     97a:	b8 8a       	std	Y+16, r11	; 0x10
     97c:	4f a5       	ldd	r20, Y+47	; 0x2f
     97e:	58 a9       	ldd	r21, Y+48	; 0x30
     980:	69 a9       	ldd	r22, Y+49	; 0x31
     982:	7a a9       	ldd	r23, Y+50	; 0x32
     984:	49 8b       	std	Y+17, r20	; 0x11
     986:	5a 8b       	std	Y+18, r21	; 0x12
     988:	6b 8b       	std	Y+19, r22	; 0x13
     98a:	7c 8b       	std	Y+20, r23	; 0x14
     98c:	4b a9       	ldd	r20, Y+51	; 0x33
     98e:	5c a9       	ldd	r21, Y+52	; 0x34
     990:	6d a9       	ldd	r22, Y+53	; 0x35
     992:	7e a9       	ldd	r23, Y+54	; 0x36
     994:	4d 8b       	std	Y+21, r20	; 0x15
     996:	5e 8b       	std	Y+22, r21	; 0x16
     998:	6f 8b       	std	Y+23, r22	; 0x17
     99a:	78 8f       	std	Y+24, r23	; 0x18
     99c:	4f a9       	ldd	r20, Y+55	; 0x37
     99e:	58 ad       	ldd	r21, Y+56	; 0x38
     9a0:	69 ad       	ldd	r22, Y+57	; 0x39
     9a2:	7a ad       	ldd	r23, Y+58	; 0x3a
     9a4:	49 8f       	std	Y+25, r20	; 0x19
     9a6:	5a 8f       	std	Y+26, r21	; 0x1a
     9a8:	6b 8f       	std	Y+27, r22	; 0x1b
     9aa:	7c 8f       	std	Y+28, r23	; 0x1c
     9ac:	4b ad       	ldd	r20, Y+59	; 0x3b
     9ae:	5c ad       	ldd	r21, Y+60	; 0x3c
     9b0:	6d ad       	ldd	r22, Y+61	; 0x3d
     9b2:	7e ad       	ldd	r23, Y+62	; 0x3e
     9b4:	4d 8f       	std	Y+29, r20	; 0x1d
     9b6:	5e 8f       	std	Y+30, r21	; 0x1e
     9b8:	6f 8f       	std	Y+31, r22	; 0x1f
     9ba:	78 a3       	std	Y+32, r23	; 0x20
     9bc:	ff 93       	push	r31
     9be:	ef 93       	push	r30
     9c0:	bf 93       	push	r27
     9c2:	af 93       	push	r26
     9c4:	2d b7       	in	r18, 0x3d	; 61
     9c6:	3e b7       	in	r19, 0x3e	; 62
     9c8:	20 51       	subi	r18, 0x10	; 16
     9ca:	31 09       	sbc	r19, r1
     9cc:	0f b6       	in	r0, 0x3f	; 63
     9ce:	f8 94       	cli
     9d0:	3e bf       	out	0x3e, r19	; 62
     9d2:	0f be       	out	0x3f, r0	; 63
     9d4:	2d bf       	out	0x3d, r18	; 61
     9d6:	ad b7       	in	r26, 0x3d	; 61
     9d8:	be b7       	in	r27, 0x3e	; 62
     9da:	11 96       	adiw	r26, 0x01	; 1
     9dc:	20 e1       	ldi	r18, 0x10	; 16
     9de:	fe 01       	movw	r30, r28
     9e0:	71 96       	adiw	r30, 0x11	; 17
     9e2:	01 90       	ld	r0, Z+
     9e4:	0d 92       	st	X+, r0
     9e6:	2a 95       	dec	r18
     9e8:	e1 f7       	brne	.-8      	; 0x9e2 <_ZN13Interpolation16setInterpolationEfffffffff+0xc2>
     9ea:	89 80       	ldd	r8, Y+1	; 0x01
     9ec:	9a 80       	ldd	r9, Y+2	; 0x02
     9ee:	ab 80       	ldd	r10, Y+3	; 0x03
     9f0:	bc 80       	ldd	r11, Y+4	; 0x04
     9f2:	cd 80       	ldd	r12, Y+5	; 0x05
     9f4:	de 80       	ldd	r13, Y+6	; 0x06
     9f6:	ef 80       	ldd	r14, Y+7	; 0x07
     9f8:	f8 84       	ldd	r15, Y+8	; 0x08
     9fa:	09 85       	ldd	r16, Y+9	; 0x09
     9fc:	1a 85       	ldd	r17, Y+10	; 0x0a
     9fe:	2b 85       	ldd	r18, Y+11	; 0x0b
     a00:	3c 85       	ldd	r19, Y+12	; 0x0c
     a02:	4d 85       	ldd	r20, Y+13	; 0x0d
     a04:	5e 85       	ldd	r21, Y+14	; 0x0e
     a06:	6f 85       	ldd	r22, Y+15	; 0x0f
     a08:	78 89       	ldd	r23, Y+16	; 0x10
     a0a:	0e 94 f9 01 	call	0x3f2	; 0x3f2 <_ZN13Interpolation16setInterpolationE5PointS0_f>
     a0e:	0f b6       	in	r0, 0x3f	; 63
     a10:	f8 94       	cli
     a12:	de bf       	out	0x3e, r29	; 62
     a14:	0f be       	out	0x3f, r0	; 63
     a16:	cd bf       	out	0x3d, r28	; 61
     a18:	a0 96       	adiw	r28, 0x20	; 32
     a1a:	0f b6       	in	r0, 0x3f	; 63
     a1c:	f8 94       	cli
     a1e:	de bf       	out	0x3e, r29	; 62
     a20:	0f be       	out	0x3f, r0	; 63
     a22:	cd bf       	out	0x3d, r28	; 61
     a24:	df 91       	pop	r29
     a26:	cf 91       	pop	r28
     a28:	1f 91       	pop	r17
     a2a:	0f 91       	pop	r16
     a2c:	ff 90       	pop	r15
     a2e:	ef 90       	pop	r14
     a30:	df 90       	pop	r13
     a32:	cf 90       	pop	r12
     a34:	bf 90       	pop	r11
     a36:	af 90       	pop	r10
     a38:	9f 90       	pop	r9
     a3a:	8f 90       	pop	r8
     a3c:	08 95       	ret

00000a3e <_ZN13Interpolation20updateActualPositionEv>:
     a3e:	8f 92       	push	r8
     a40:	9f 92       	push	r9
     a42:	af 92       	push	r10
     a44:	bf 92       	push	r11
     a46:	cf 92       	push	r12
     a48:	df 92       	push	r13
     a4a:	ef 92       	push	r14
     a4c:	ff 92       	push	r15
     a4e:	0f 93       	push	r16
     a50:	1f 93       	push	r17
     a52:	cf 93       	push	r28
     a54:	df 93       	push	r29
     a56:	cd b7       	in	r28, 0x3d	; 61
     a58:	de b7       	in	r29, 0x3e	; 62
     a5a:	c4 56       	subi	r28, 0x64	; 100
     a5c:	d1 09       	sbc	r29, r1
     a5e:	0f b6       	in	r0, 0x3f	; 63
     a60:	f8 94       	cli
     a62:	de bf       	out	0x3e, r29	; 62
     a64:	0f be       	out	0x3f, r0	; 63
     a66:	cd bf       	out	0x3d, r28	; 61
     a68:	fc 01       	movw	r30, r24
     a6a:	20 81       	ld	r18, Z
     a6c:	21 11       	cpse	r18, r1
     a6e:	de c0       	rjmp	.+444    	; 0xc2c <_ZN13Interpolation20updateActualPositionEv+0x1ee>
     a70:	8c 01       	movw	r16, r24
     a72:	05 96       	adiw	r24, 0x05	; 5
     a74:	0e 94 77 07 	call	0xeee	; 0xeee <_ZN7SysTime5MicroEv>
     a78:	6b 01       	movw	r12, r22
     a7a:	7c 01       	movw	r14, r24
     a7c:	f8 01       	movw	r30, r16
     a7e:	81 81       	ldd	r24, Z+1	; 0x01
     a80:	92 81       	ldd	r25, Z+2	; 0x02
     a82:	a3 81       	ldd	r26, Z+3	; 0x03
     a84:	b4 81       	ldd	r27, Z+4	; 0x04
     a86:	a7 01       	movw	r20, r14
     a88:	96 01       	movw	r18, r12
     a8a:	28 1b       	sub	r18, r24
     a8c:	39 0b       	sbc	r19, r25
     a8e:	4a 0b       	sbc	r20, r26
     a90:	5b 0b       	sbc	r21, r27
     a92:	ca 01       	movw	r24, r20
     a94:	b9 01       	movw	r22, r18
     a96:	0e 94 2d 0b 	call	0x165a	; 0x165a <__floatunsisf>
     a9a:	20 e0       	ldi	r18, 0x00	; 0
     a9c:	34 e2       	ldi	r19, 0x24	; 36
     a9e:	44 e7       	ldi	r20, 0x74	; 116
     aa0:	59 e4       	ldi	r21, 0x49	; 73
     aa2:	0e 94 85 0a 	call	0x150a	; 0x150a <__divsf3>
     aa6:	4b 01       	movw	r8, r22
     aa8:	5c 01       	movw	r10, r24
     aaa:	60 e0       	ldi	r22, 0x00	; 0
     aac:	71 e0       	ldi	r23, 0x01	; 1
     aae:	80 ec       	ldi	r24, 0xC0	; 192
     ab0:	90 e0       	ldi	r25, 0x00	; 0
     ab2:	0e 94 a8 09 	call	0x1350	; 0x1350 <_Z10SendStringjPc>
     ab6:	f8 01       	movw	r30, r16
     ab8:	61 81       	ldd	r22, Z+1	; 0x01
     aba:	72 81       	ldd	r23, Z+2	; 0x02
     abc:	80 ec       	ldi	r24, 0xC0	; 192
     abe:	90 e0       	ldi	r25, 0x00	; 0
     ac0:	0e 94 bd 09 	call	0x137a	; 0x137a <_Z11SendIntegerji>
     ac4:	6a e1       	ldi	r22, 0x1A	; 26
     ac6:	71 e0       	ldi	r23, 0x01	; 1
     ac8:	80 ec       	ldi	r24, 0xC0	; 192
     aca:	90 e0       	ldi	r25, 0x00	; 0
     acc:	0e 94 a8 09 	call	0x1350	; 0x1350 <_Z10SendStringjPc>
     ad0:	ff 92       	push	r15
     ad2:	ef 92       	push	r14
     ad4:	df 92       	push	r13
     ad6:	cf 92       	push	r12
     ad8:	8c e1       	ldi	r24, 0x1C	; 28
     ada:	91 e0       	ldi	r25, 0x01	; 1
     adc:	9f 93       	push	r25
     ade:	8f 93       	push	r24
     ae0:	9e 01       	movw	r18, r28
     ae2:	2f 5f       	subi	r18, 0xFF	; 255
     ae4:	3f 4f       	sbci	r19, 0xFF	; 255
     ae6:	79 01       	movw	r14, r18
     ae8:	3f 93       	push	r19
     aea:	2f 93       	push	r18
     aec:	0e 94 93 0d 	call	0x1b26	; 0x1b26 <sprintf>
     af0:	b7 01       	movw	r22, r14
     af2:	80 ec       	ldi	r24, 0xC0	; 192
     af4:	90 e0       	ldi	r25, 0x00	; 0
     af6:	0e 94 a8 09 	call	0x1350	; 0x1350 <_Z10SendStringjPc>
     afa:	f8 01       	movw	r30, r16
     afc:	fd 96       	adiw	r30, 0x3d	; 61
     afe:	20 81       	ld	r18, Z
     b00:	31 81       	ldd	r19, Z+1	; 0x01
     b02:	42 81       	ldd	r20, Z+2	; 0x02
     b04:	53 81       	ldd	r21, Z+3	; 0x03
     b06:	c5 01       	movw	r24, r10
     b08:	b4 01       	movw	r22, r8
     b0a:	0e 94 7e 0c 	call	0x18fc	; 0x18fc <__mulsf3>
     b0e:	6b 01       	movw	r12, r22
     b10:	7c 01       	movw	r14, r24
     b12:	2b ed       	ldi	r18, 0xDB	; 219
     b14:	3f e0       	ldi	r19, 0x0F	; 15
     b16:	49 e4       	ldi	r20, 0x49	; 73
     b18:	50 e4       	ldi	r21, 0x40	; 64
     b1a:	0e 94 7e 0c 	call	0x18fc	; 0x18fc <__mulsf3>
     b1e:	0e 94 80 0a 	call	0x1500	; 0x1500 <cos>
     b22:	4b 01       	movw	r8, r22
     b24:	5c 01       	movw	r10, r24
     b26:	0f b6       	in	r0, 0x3f	; 63
     b28:	f8 94       	cli
     b2a:	de bf       	out	0x3e, r29	; 62
     b2c:	0f be       	out	0x3f, r0	; 63
     b2e:	cd bf       	out	0x3d, r28	; 61
     b30:	20 e0       	ldi	r18, 0x00	; 0
     b32:	30 e0       	ldi	r19, 0x00	; 0
     b34:	40 e8       	ldi	r20, 0x80	; 128
     b36:	5f e3       	ldi	r21, 0x3F	; 63
     b38:	c7 01       	movw	r24, r14
     b3a:	b6 01       	movw	r22, r12
     b3c:	0e 94 79 0c 	call	0x18f2	; 0x18f2 <__gesf2>
     b40:	88 23       	and	r24, r24
     b42:	94 f4       	brge	.+36     	; 0xb68 <_ZN13Interpolation20updateActualPositionEv+0x12a>
     b44:	c5 01       	movw	r24, r10
     b46:	b4 01       	movw	r22, r8
     b48:	90 58       	subi	r25, 0x80	; 128
     b4a:	20 e0       	ldi	r18, 0x00	; 0
     b4c:	30 e0       	ldi	r19, 0x00	; 0
     b4e:	40 e0       	ldi	r20, 0x00	; 0
     b50:	5f e3       	ldi	r21, 0x3F	; 63
     b52:	0e 94 7e 0c 	call	0x18fc	; 0x18fc <__mulsf3>
     b56:	20 e0       	ldi	r18, 0x00	; 0
     b58:	30 e0       	ldi	r19, 0x00	; 0
     b5a:	40 e0       	ldi	r20, 0x00	; 0
     b5c:	5f e3       	ldi	r21, 0x3F	; 63
     b5e:	0e 94 f4 09 	call	0x13e8	; 0x13e8 <__addsf3>
     b62:	6b 01       	movw	r12, r22
     b64:	7c 01       	movw	r14, r24
     b66:	11 c0       	rjmp	.+34     	; 0xb8a <_ZN13Interpolation20updateActualPositionEv+0x14c>
     b68:	81 e0       	ldi	r24, 0x01	; 1
     b6a:	f8 01       	movw	r30, r16
     b6c:	80 83       	st	Z, r24
     b6e:	60 e2       	ldi	r22, 0x20	; 32
     b70:	71 e0       	ldi	r23, 0x01	; 1
     b72:	80 ec       	ldi	r24, 0xC0	; 192
     b74:	90 e0       	ldi	r25, 0x00	; 0
     b76:	0e 94 a8 09 	call	0x1350	; 0x1350 <_Z10SendStringjPc>
     b7a:	0f 2e       	mov	r0, r31
     b7c:	c1 2c       	mov	r12, r1
     b7e:	d1 2c       	mov	r13, r1
     b80:	f0 e8       	ldi	r31, 0x80	; 128
     b82:	ef 2e       	mov	r14, r31
     b84:	ff e3       	ldi	r31, 0x3F	; 63
     b86:	ff 2e       	mov	r15, r31
     b88:	f0 2d       	mov	r31, r0
     b8a:	f8 01       	movw	r30, r16
     b8c:	21 8d       	ldd	r18, Z+25	; 0x19
     b8e:	32 8d       	ldd	r19, Z+26	; 0x1a
     b90:	43 8d       	ldd	r20, Z+27	; 0x1b
     b92:	54 8d       	ldd	r21, Z+28	; 0x1c
     b94:	c7 01       	movw	r24, r14
     b96:	b6 01       	movw	r22, r12
     b98:	0e 94 7e 0c 	call	0x18fc	; 0x18fc <__mulsf3>
     b9c:	f8 01       	movw	r30, r16
     b9e:	21 85       	ldd	r18, Z+9	; 0x09
     ba0:	32 85       	ldd	r19, Z+10	; 0x0a
     ba2:	43 85       	ldd	r20, Z+11	; 0x0b
     ba4:	54 85       	ldd	r21, Z+12	; 0x0c
     ba6:	0e 94 f4 09 	call	0x13e8	; 0x13e8 <__addsf3>
     baa:	f8 01       	movw	r30, r16
     bac:	61 a7       	std	Z+41, r22	; 0x29
     bae:	72 a7       	std	Z+42, r23	; 0x2a
     bb0:	83 a7       	std	Z+43, r24	; 0x2b
     bb2:	94 a7       	std	Z+44, r25	; 0x2c
     bb4:	25 8d       	ldd	r18, Z+29	; 0x1d
     bb6:	36 8d       	ldd	r19, Z+30	; 0x1e
     bb8:	47 8d       	ldd	r20, Z+31	; 0x1f
     bba:	50 a1       	ldd	r21, Z+32	; 0x20
     bbc:	c7 01       	movw	r24, r14
     bbe:	b6 01       	movw	r22, r12
     bc0:	0e 94 7e 0c 	call	0x18fc	; 0x18fc <__mulsf3>
     bc4:	f8 01       	movw	r30, r16
     bc6:	25 85       	ldd	r18, Z+13	; 0x0d
     bc8:	36 85       	ldd	r19, Z+14	; 0x0e
     bca:	47 85       	ldd	r20, Z+15	; 0x0f
     bcc:	50 89       	ldd	r21, Z+16	; 0x10
     bce:	0e 94 f4 09 	call	0x13e8	; 0x13e8 <__addsf3>
     bd2:	f8 01       	movw	r30, r16
     bd4:	65 a7       	std	Z+45, r22	; 0x2d
     bd6:	76 a7       	std	Z+46, r23	; 0x2e
     bd8:	87 a7       	std	Z+47, r24	; 0x2f
     bda:	90 ab       	std	Z+48, r25	; 0x30
     bdc:	21 a1       	ldd	r18, Z+33	; 0x21
     bde:	32 a1       	ldd	r19, Z+34	; 0x22
     be0:	43 a1       	ldd	r20, Z+35	; 0x23
     be2:	54 a1       	ldd	r21, Z+36	; 0x24
     be4:	c7 01       	movw	r24, r14
     be6:	b6 01       	movw	r22, r12
     be8:	0e 94 7e 0c 	call	0x18fc	; 0x18fc <__mulsf3>
     bec:	f8 01       	movw	r30, r16
     bee:	21 89       	ldd	r18, Z+17	; 0x11
     bf0:	32 89       	ldd	r19, Z+18	; 0x12
     bf2:	43 89       	ldd	r20, Z+19	; 0x13
     bf4:	54 89       	ldd	r21, Z+20	; 0x14
     bf6:	0e 94 f4 09 	call	0x13e8	; 0x13e8 <__addsf3>
     bfa:	f8 01       	movw	r30, r16
     bfc:	61 ab       	std	Z+49, r22	; 0x31
     bfe:	72 ab       	std	Z+50, r23	; 0x32
     c00:	83 ab       	std	Z+51, r24	; 0x33
     c02:	94 ab       	std	Z+52, r25	; 0x34
     c04:	25 a1       	ldd	r18, Z+37	; 0x25
     c06:	36 a1       	ldd	r19, Z+38	; 0x26
     c08:	47 a1       	ldd	r20, Z+39	; 0x27
     c0a:	50 a5       	ldd	r21, Z+40	; 0x28
     c0c:	c7 01       	movw	r24, r14
     c0e:	b6 01       	movw	r22, r12
     c10:	0e 94 7e 0c 	call	0x18fc	; 0x18fc <__mulsf3>
     c14:	f8 01       	movw	r30, r16
     c16:	25 89       	ldd	r18, Z+21	; 0x15
     c18:	36 89       	ldd	r19, Z+22	; 0x16
     c1a:	47 89       	ldd	r20, Z+23	; 0x17
     c1c:	50 8d       	ldd	r21, Z+24	; 0x18
     c1e:	0e 94 f4 09 	call	0x13e8	; 0x13e8 <__addsf3>
     c22:	f8 01       	movw	r30, r16
     c24:	65 ab       	std	Z+53, r22	; 0x35
     c26:	76 ab       	std	Z+54, r23	; 0x36
     c28:	87 ab       	std	Z+55, r24	; 0x37
     c2a:	90 af       	std	Z+56, r25	; 0x38
     c2c:	cc 59       	subi	r28, 0x9C	; 156
     c2e:	df 4f       	sbci	r29, 0xFF	; 255
     c30:	0f b6       	in	r0, 0x3f	; 63
     c32:	f8 94       	cli
     c34:	de bf       	out	0x3e, r29	; 62
     c36:	0f be       	out	0x3f, r0	; 63
     c38:	cd bf       	out	0x3d, r28	; 61
     c3a:	df 91       	pop	r29
     c3c:	cf 91       	pop	r28
     c3e:	1f 91       	pop	r17
     c40:	0f 91       	pop	r16
     c42:	ff 90       	pop	r15
     c44:	ef 90       	pop	r14
     c46:	df 90       	pop	r13
     c48:	cf 90       	pop	r12
     c4a:	bf 90       	pop	r11
     c4c:	af 90       	pop	r10
     c4e:	9f 90       	pop	r9
     c50:	8f 90       	pop	r8
     c52:	08 95       	ret

00000c54 <_ZNK13Interpolation9getXPosmmEv>:

float Interpolation::getXPosmm() const{
	return xPosmm_;	
     c54:	fc 01       	movw	r30, r24
     c56:	61 a5       	ldd	r22, Z+41	; 0x29
     c58:	72 a5       	ldd	r23, Z+42	; 0x2a
     c5a:	83 a5       	ldd	r24, Z+43	; 0x2b
     c5c:	94 a5       	ldd	r25, Z+44	; 0x2c
}
     c5e:	08 95       	ret

00000c60 <_ZNK13Interpolation9getYPosmmEv>:

float Interpolation::getYPosmm() const{
	return yPosmm_;	
     c60:	fc 01       	movw	r30, r24
     c62:	65 a5       	ldd	r22, Z+45	; 0x2d
     c64:	76 a5       	ldd	r23, Z+46	; 0x2e
     c66:	87 a5       	ldd	r24, Z+47	; 0x2f
     c68:	90 a9       	ldd	r25, Z+48	; 0x30
}
     c6a:	08 95       	ret

00000c6c <_ZNK13Interpolation9getZPosmmEv>:
float Interpolation::getZPosmm() const{
	return zPosmm_;
     c6c:	fc 01       	movw	r30, r24
     c6e:	61 a9       	ldd	r22, Z+49	; 0x31
     c70:	72 a9       	ldd	r23, Z+50	; 0x32
     c72:	83 a9       	ldd	r24, Z+51	; 0x33
     c74:	94 a9       	ldd	r25, Z+52	; 0x34
}
     c76:	08 95       	ret

00000c78 <_ZN3pin4highEv>:
	pinno_ = pinno;
	low();
	state_ = false;
}
// Sets the pin high
void pin::high(){
     c78:	dc 01       	movw	r26, r24
	*port_ |= 1<<pinno_;
     c7a:	11 96       	adiw	r26, 0x01	; 1
     c7c:	ed 91       	ld	r30, X+
     c7e:	fc 91       	ld	r31, X
     c80:	12 97       	sbiw	r26, 0x02	; 2
     c82:	40 81       	ld	r20, Z
     c84:	21 e0       	ldi	r18, 0x01	; 1
     c86:	30 e0       	ldi	r19, 0x00	; 0
     c88:	c9 01       	movw	r24, r18
     c8a:	13 96       	adiw	r26, 0x03	; 3
     c8c:	0c 90       	ld	r0, X
     c8e:	02 c0       	rjmp	.+4      	; 0xc94 <_ZN3pin4highEv+0x1c>
     c90:	88 0f       	add	r24, r24
     c92:	99 1f       	adc	r25, r25
     c94:	0a 94       	dec	r0
     c96:	e2 f7       	brpl	.-8      	; 0xc90 <_ZN3pin4highEv+0x18>
     c98:	84 2b       	or	r24, r20
     c9a:	80 83       	st	Z, r24
     c9c:	08 95       	ret

00000c9e <_ZN3pin3lowEv>:
}

// Sets the pin low
void pin::low(){
	*port_ &= ~(1<<pinno_);
     c9e:	dc 01       	movw	r26, r24
     ca0:	11 96       	adiw	r26, 0x01	; 1
     ca2:	ed 91       	ld	r30, X+
     ca4:	fc 91       	ld	r31, X
     ca6:	12 97       	sbiw	r26, 0x02	; 2
     ca8:	40 81       	ld	r20, Z
     caa:	21 e0       	ldi	r18, 0x01	; 1
     cac:	30 e0       	ldi	r19, 0x00	; 0
     cae:	b9 01       	movw	r22, r18
     cb0:	13 96       	adiw	r26, 0x03	; 3
     cb2:	0c 90       	ld	r0, X
     cb4:	02 c0       	rjmp	.+4      	; 0xcba <_ZN3pin3lowEv+0x1c>
     cb6:	66 0f       	add	r22, r22
     cb8:	77 1f       	adc	r23, r23
     cba:	0a 94       	dec	r0
     cbc:	e2 f7       	brpl	.-8      	; 0xcb6 <_ZN3pin3lowEv+0x18>
     cbe:	cb 01       	movw	r24, r22
     cc0:	80 95       	com	r24
     cc2:	84 23       	and	r24, r20
     cc4:	80 83       	st	Z, r24
     cc6:	08 95       	ret

00000cc8 <_ZN3pinC1EPVhS1_hb>:
 * Created: 27/02/2020 11.48.29
 *  Author: jonas
 */ 
#include "d_pin.h"

pin::pin(volatile uint8_t* DDRadr, volatile uint8_t* port, uint8_t pinno, bool input){
     cc8:	0f 93       	push	r16
     cca:	cf 93       	push	r28
     ccc:	df 93       	push	r29
     cce:	ec 01       	movw	r28, r24
	if (input==false)
     cd0:	01 11       	cpse	r16, r1
     cd2:	0d c0       	rjmp	.+26     	; 0xcee <_ZN3pinC1EPVhS1_hb+0x26>
	{
		*DDRadr |= (1<<pinno);
     cd4:	fb 01       	movw	r30, r22
     cd6:	30 81       	ld	r19, Z
     cd8:	81 e0       	ldi	r24, 0x01	; 1
     cda:	90 e0       	ldi	r25, 0x00	; 0
     cdc:	02 2e       	mov	r0, r18
     cde:	02 c0       	rjmp	.+4      	; 0xce4 <_ZN3pinC1EPVhS1_hb+0x1c>
     ce0:	88 0f       	add	r24, r24
     ce2:	99 1f       	adc	r25, r25
     ce4:	0a 94       	dec	r0
     ce6:	e2 f7       	brpl	.-8      	; 0xce0 <_ZN3pinC1EPVhS1_hb+0x18>
     ce8:	83 2b       	or	r24, r19
     cea:	80 83       	st	Z, r24
     cec:	0d c0       	rjmp	.+26     	; 0xd08 <_ZN3pinC1EPVhS1_hb+0x40>
	}
	else
	{
		*DDRadr &= ~(1<<pinno);
     cee:	fb 01       	movw	r30, r22
     cf0:	30 81       	ld	r19, Z
     cf2:	81 e0       	ldi	r24, 0x01	; 1
     cf4:	90 e0       	ldi	r25, 0x00	; 0
     cf6:	02 2e       	mov	r0, r18
     cf8:	02 c0       	rjmp	.+4      	; 0xcfe <_ZN3pinC1EPVhS1_hb+0x36>
     cfa:	88 0f       	add	r24, r24
     cfc:	99 1f       	adc	r25, r25
     cfe:	0a 94       	dec	r0
     d00:	e2 f7       	brpl	.-8      	; 0xcfa <_ZN3pinC1EPVhS1_hb+0x32>
     d02:	80 95       	com	r24
     d04:	83 23       	and	r24, r19
     d06:	80 83       	st	Z, r24
	}
	
	port_  = port;
     d08:	5a 83       	std	Y+2, r21	; 0x02
     d0a:	49 83       	std	Y+1, r20	; 0x01
	pinno_ = pinno;
     d0c:	2b 83       	std	Y+3, r18	; 0x03
	low();
     d0e:	ce 01       	movw	r24, r28
     d10:	0e 94 4f 06 	call	0xc9e	; 0xc9e <_ZN3pin3lowEv>
	state_ = false;
     d14:	18 82       	st	Y, r1
}
     d16:	df 91       	pop	r29
     d18:	cf 91       	pop	r28
     d1a:	0f 91       	pop	r16
     d1c:	08 95       	ret

00000d1e <_ZN3pin9readValueEv>:
void pin::low(){
	*port_ &= ~(1<<pinno_);
}

// Read pin value
bool pin::readValue(){
     d1e:	fc 01       	movw	r30, r24
	unsigned char x = (1 << pinno_);
	return ~(*port_) & x;
     d20:	a1 81       	ldd	r26, Z+1	; 0x01
     d22:	b2 81       	ldd	r27, Z+2	; 0x02
     d24:	9c 91       	ld	r25, X
     d26:	21 e0       	ldi	r18, 0x01	; 1
     d28:	30 e0       	ldi	r19, 0x00	; 0
     d2a:	03 80       	ldd	r0, Z+3	; 0x03
     d2c:	02 c0       	rjmp	.+4      	; 0xd32 <_ZN3pin9readValueEv+0x14>
     d2e:	22 0f       	add	r18, r18
     d30:	33 1f       	adc	r19, r19
     d32:	0a 94       	dec	r0
     d34:	e2 f7       	brpl	.-8      	; 0xd2e <_ZN3pin9readValueEv+0x10>
     d36:	89 2f       	mov	r24, r25
     d38:	90 e0       	ldi	r25, 0x00	; 0
     d3a:	80 95       	com	r24
     d3c:	90 95       	com	r25
     d3e:	28 23       	and	r18, r24
     d40:	39 23       	and	r19, r25
     d42:	81 e0       	ldi	r24, 0x01	; 1
     d44:	21 11       	cpse	r18, r1
     d46:	01 c0       	rjmp	.+2      	; 0xd4a <_ZN3pin9readValueEv+0x2c>
     d48:	80 e0       	ldi	r24, 0x00	; 0
}
     d4a:	08 95       	ret

00000d4c <_ZN12stepperMotorC1EP3pinS1_>:
	stepperStepTargetPosition_ = rad * radToStepFactor_;
}

void stepperMotor::stepRelativeRad(float rad) {
	stepRelative(rad * radToStepFactor_);
}
     d4c:	fc 01       	movw	r30, r24
     d4e:	75 83       	std	Z+5, r23	; 0x05
     d50:	64 83       	std	Z+4, r22	; 0x04
     d52:	57 83       	std	Z+7, r21	; 0x07
     d54:	46 83       	std	Z+6, r20	; 0x06
     d56:	08 95       	ret

00000d58 <_ZN12stepperMotor14setPositionRadEf>:
     d58:	cf 93       	push	r28
     d5a:	df 93       	push	r29
     d5c:	ec 01       	movw	r28, r24
     d5e:	cb 01       	movw	r24, r22
     d60:	ba 01       	movw	r22, r20
     d62:	28 85       	ldd	r18, Y+8	; 0x08
     d64:	39 85       	ldd	r19, Y+9	; 0x09
     d66:	4a 85       	ldd	r20, Y+10	; 0x0a
     d68:	5b 85       	ldd	r21, Y+11	; 0x0b
     d6a:	0e 94 7e 0c 	call	0x18fc	; 0x18fc <__mulsf3>
     d6e:	0e 94 f7 0a 	call	0x15ee	; 0x15ee <__fixsfsi>
     d72:	7b 83       	std	Y+3, r23	; 0x03
     d74:	6a 83       	std	Y+2, r22	; 0x02
     d76:	79 83       	std	Y+1, r23	; 0x01
     d78:	68 83       	st	Y, r22
     d7a:	df 91       	pop	r29
     d7c:	cf 91       	pop	r28
     d7e:	08 95       	ret

00000d80 <_ZN12stepperMotor17stepToPositionRadEf>:
     d80:	cf 93       	push	r28
     d82:	df 93       	push	r29
     d84:	ec 01       	movw	r28, r24
     d86:	cb 01       	movw	r24, r22
     d88:	ba 01       	movw	r22, r20
     d8a:	28 85       	ldd	r18, Y+8	; 0x08
     d8c:	39 85       	ldd	r19, Y+9	; 0x09
     d8e:	4a 85       	ldd	r20, Y+10	; 0x0a
     d90:	5b 85       	ldd	r21, Y+11	; 0x0b
     d92:	0e 94 7e 0c 	call	0x18fc	; 0x18fc <__mulsf3>
     d96:	0e 94 f7 0a 	call	0x15ee	; 0x15ee <__fixsfsi>
     d9a:	79 83       	std	Y+1, r23	; 0x01
     d9c:	68 83       	st	Y, r22
     d9e:	df 91       	pop	r29
     da0:	cf 91       	pop	r28
     da2:	08 95       	ret

00000da4 <_ZN12stepperMotor6updateEv>:

void stepperMotor::update() {
     da4:	cf 93       	push	r28
     da6:	df 93       	push	r29
     da8:	ec 01       	movw	r28, r24
	while (stepperStepTargetPosition_ < stepperStepPosition_) {
     daa:	28 81       	ld	r18, Y
     dac:	39 81       	ldd	r19, Y+1	; 0x01
     dae:	8a 81       	ldd	r24, Y+2	; 0x02
     db0:	9b 81       	ldd	r25, Y+3	; 0x03
     db2:	28 17       	cp	r18, r24
     db4:	39 07       	cpc	r19, r25
     db6:	44 f0       	brlt	.+16     	; 0xdc8 <_ZN12stepperMotor6updateEv+0x24>
		/*
		step(true);
		stepperStepPosition_--;
		_delay_ms(5);*/
	}
	while (stepperStepTargetPosition_ > stepperStepPosition_) {
     db8:	28 81       	ld	r18, Y
     dba:	39 81       	ldd	r19, Y+1	; 0x01
     dbc:	8a 81       	ldd	r24, Y+2	; 0x02
     dbe:	9b 81       	ldd	r25, Y+3	; 0x03
     dc0:	82 17       	cp	r24, r18
     dc2:	93 07       	cpc	r25, r19
     dc4:	2c f1       	brlt	.+74     	; 0xe10 <_ZN12stepperMotor6updateEv+0x6c>
     dc6:	47 c0       	rjmp	.+142    	; 0xe56 <_ZN12stepperMotor6updateEv+0xb2>
	stepRelative(rad * radToStepFactor_);
}

void stepperMotor::update() {
	while (stepperStepTargetPosition_ < stepperStepPosition_) {
		dirPinP_->high();
     dc8:	8e 81       	ldd	r24, Y+6	; 0x06
     dca:	9f 81       	ldd	r25, Y+7	; 0x07
     dcc:	0e 94 3c 06 	call	0xc78	; 0xc78 <_ZN3pin4highEv>
	#else
		//round up by default
		__ticks_dc = (uint32_t)(ceil(fabs(__tmp)));
	#endif

	__builtin_avr_delay_cycles(__ticks_dc);
     dd0:	8a e1       	ldi	r24, 0x1A	; 26
     dd2:	8a 95       	dec	r24
     dd4:	f1 f7       	brne	.-4      	; 0xdd2 <_ZN12stepperMotor6updateEv+0x2e>
     dd6:	00 c0       	rjmp	.+0      	; 0xdd8 <_ZN12stepperMotor6updateEv+0x34>
		_delay_us(5);
		stepPinP_->high();
     dd8:	8c 81       	ldd	r24, Y+4	; 0x04
     dda:	9d 81       	ldd	r25, Y+5	; 0x05
     ddc:	0e 94 3c 06 	call	0xc78	; 0xc78 <_ZN3pin4highEv>
     de0:	8f e9       	ldi	r24, 0x9F	; 159
     de2:	9f e0       	ldi	r25, 0x0F	; 15
     de4:	01 97       	sbiw	r24, 0x01	; 1
     de6:	f1 f7       	brne	.-4      	; 0xde4 <_ZN12stepperMotor6updateEv+0x40>
     de8:	00 c0       	rjmp	.+0      	; 0xdea <_ZN12stepperMotor6updateEv+0x46>
     dea:	00 00       	nop
		_delay_us(1000);
		stepPinP_->low();
     dec:	8c 81       	ldd	r24, Y+4	; 0x04
     dee:	9d 81       	ldd	r25, Y+5	; 0x05
     df0:	0e 94 4f 06 	call	0xc9e	; 0xc9e <_ZN3pin3lowEv>
     df4:	8f e9       	ldi	r24, 0x9F	; 159
     df6:	9f e0       	ldi	r25, 0x0F	; 15
     df8:	01 97       	sbiw	r24, 0x01	; 1
     dfa:	f1 f7       	brne	.-4      	; 0xdf8 <_ZN12stepperMotor6updateEv+0x54>
     dfc:	00 c0       	rjmp	.+0      	; 0xdfe <_ZN12stepperMotor6updateEv+0x5a>
     dfe:	00 00       	nop
void stepperMotor::stepRelativeRad(float rad) {
	stepRelative(rad * radToStepFactor_);
}

void stepperMotor::update() {
	while (stepperStepTargetPosition_ < stepperStepPosition_) {
     e00:	28 81       	ld	r18, Y
     e02:	39 81       	ldd	r19, Y+1	; 0x01
     e04:	8a 81       	ldd	r24, Y+2	; 0x02
     e06:	9b 81       	ldd	r25, Y+3	; 0x03
     e08:	28 17       	cp	r18, r24
     e0a:	39 07       	cpc	r19, r25
     e0c:	ec f2       	brlt	.-70     	; 0xdc8 <_ZN12stepperMotor6updateEv+0x24>
     e0e:	d4 cf       	rjmp	.-88     	; 0xdb8 <_ZN12stepperMotor6updateEv+0x14>
		step(true);
		stepperStepPosition_--;
		_delay_ms(5);*/
	}
	while (stepperStepTargetPosition_ > stepperStepPosition_) {
		dirPinP_->low();
     e10:	8e 81       	ldd	r24, Y+6	; 0x06
     e12:	9f 81       	ldd	r25, Y+7	; 0x07
     e14:	0e 94 4f 06 	call	0xc9e	; 0xc9e <_ZN3pin3lowEv>
     e18:	9a e1       	ldi	r25, 0x1A	; 26
     e1a:	9a 95       	dec	r25
     e1c:	f1 f7       	brne	.-4      	; 0xe1a <_ZN12stepperMotor6updateEv+0x76>
     e1e:	00 c0       	rjmp	.+0      	; 0xe20 <_ZN12stepperMotor6updateEv+0x7c>
		_delay_us(5);
		stepPinP_->high();
     e20:	8c 81       	ldd	r24, Y+4	; 0x04
     e22:	9d 81       	ldd	r25, Y+5	; 0x05
     e24:	0e 94 3c 06 	call	0xc78	; 0xc78 <_ZN3pin4highEv>
     e28:	8f e9       	ldi	r24, 0x9F	; 159
     e2a:	9f e0       	ldi	r25, 0x0F	; 15
     e2c:	01 97       	sbiw	r24, 0x01	; 1
     e2e:	f1 f7       	brne	.-4      	; 0xe2c <_ZN12stepperMotor6updateEv+0x88>
     e30:	00 c0       	rjmp	.+0      	; 0xe32 <_ZN12stepperMotor6updateEv+0x8e>
     e32:	00 00       	nop
		_delay_us(1000);
		stepPinP_->low();
     e34:	8c 81       	ldd	r24, Y+4	; 0x04
     e36:	9d 81       	ldd	r25, Y+5	; 0x05
     e38:	0e 94 4f 06 	call	0xc9e	; 0xc9e <_ZN3pin3lowEv>
     e3c:	8f e9       	ldi	r24, 0x9F	; 159
     e3e:	9f e0       	ldi	r25, 0x0F	; 15
     e40:	01 97       	sbiw	r24, 0x01	; 1
     e42:	f1 f7       	brne	.-4      	; 0xe40 <_ZN12stepperMotor6updateEv+0x9c>
     e44:	00 c0       	rjmp	.+0      	; 0xe46 <_ZN12stepperMotor6updateEv+0xa2>
     e46:	00 00       	nop
		/*
		step(true);
		stepperStepPosition_--;
		_delay_ms(5);*/
	}
	while (stepperStepTargetPosition_ > stepperStepPosition_) {
     e48:	28 81       	ld	r18, Y
     e4a:	39 81       	ldd	r19, Y+1	; 0x01
     e4c:	8a 81       	ldd	r24, Y+2	; 0x02
     e4e:	9b 81       	ldd	r25, Y+3	; 0x03
     e50:	82 17       	cp	r24, r18
     e52:	93 07       	cpc	r25, r19
     e54:	ec f2       	brlt	.-70     	; 0xe10 <_ZN12stepperMotor6updateEv+0x6c>
		step(false);
		stepperStepPosition_++;
		_delay_ms(5);
		*/
	}
}
     e56:	df 91       	pop	r29
     e58:	cf 91       	pop	r28
     e5a:	08 95       	ret

00000e5c <_ZN12stepperMotor17setReductionRatioEfi>:

void stepperMotor::setReductionRatio(float gearRatio, int stepsPerRev) {
     e5c:	cf 92       	push	r12
     e5e:	df 92       	push	r13
     e60:	ef 92       	push	r14
     e62:	ff 92       	push	r15
     e64:	cf 93       	push	r28
     e66:	df 93       	push	r29
     e68:	ec 01       	movw	r28, r24
     e6a:	6a 01       	movw	r12, r20
     e6c:	7b 01       	movw	r14, r22
	radToStepFactor_ = gearRatio * stepsPerRev / 2 / M_PI;
     e6e:	b9 01       	movw	r22, r18
     e70:	33 0f       	add	r19, r19
     e72:	88 0b       	sbc	r24, r24
     e74:	99 0b       	sbc	r25, r25
     e76:	0e 94 2f 0b 	call	0x165e	; 0x165e <__floatsisf>
     e7a:	a7 01       	movw	r20, r14
     e7c:	96 01       	movw	r18, r12
     e7e:	0e 94 7e 0c 	call	0x18fc	; 0x18fc <__mulsf3>
     e82:	20 e0       	ldi	r18, 0x00	; 0
     e84:	30 e0       	ldi	r19, 0x00	; 0
     e86:	40 e0       	ldi	r20, 0x00	; 0
     e88:	5f e3       	ldi	r21, 0x3F	; 63
     e8a:	0e 94 7e 0c 	call	0x18fc	; 0x18fc <__mulsf3>
     e8e:	2b ed       	ldi	r18, 0xDB	; 219
     e90:	3f e0       	ldi	r19, 0x0F	; 15
     e92:	49 e4       	ldi	r20, 0x49	; 73
     e94:	50 e4       	ldi	r21, 0x40	; 64
     e96:	0e 94 85 0a 	call	0x150a	; 0x150a <__divsf3>
     e9a:	68 87       	std	Y+8, r22	; 0x08
     e9c:	79 87       	std	Y+9, r23	; 0x09
     e9e:	8a 87       	std	Y+10, r24	; 0x0a
     ea0:	9b 87       	std	Y+11, r25	; 0x0b
};
     ea2:	df 91       	pop	r29
     ea4:	cf 91       	pop	r28
     ea6:	ff 90       	pop	r15
     ea8:	ef 90       	pop	r14
     eaa:	df 90       	pop	r13
     eac:	cf 90       	pop	r12
     eae:	08 95       	ret

00000eb0 <_ZN7SysTimeC1Ev>:
/**
* Resets the SystemTimer
*/
void SysTime::Reset() {
	ovfCount_ = 0;
	TCNT1 = 0;
     eb0:	fc 01       	movw	r30, r24
     eb2:	10 82       	st	Z, r1
     eb4:	11 82       	std	Z+1, r1	; 0x01
     eb6:	12 82       	std	Z+2, r1	; 0x02
     eb8:	13 82       	std	Z+3, r1	; 0x03
     eba:	e1 e8       	ldi	r30, 0x81	; 129
     ebc:	f0 e0       	ldi	r31, 0x00	; 0
     ebe:	80 81       	ld	r24, Z
     ec0:	82 60       	ori	r24, 0x02	; 2
     ec2:	80 83       	st	Z, r24
     ec4:	ef e6       	ldi	r30, 0x6F	; 111
     ec6:	f0 e0       	ldi	r31, 0x00	; 0
     ec8:	80 81       	ld	r24, Z
     eca:	81 60       	ori	r24, 0x01	; 1
     ecc:	80 83       	st	Z, r24
     ece:	78 94       	sei
     ed0:	08 95       	ret

00000ed2 <_ZN7SysTime8OverflowEv>:
     ed2:	fc 01       	movw	r30, r24
     ed4:	40 81       	ld	r20, Z
     ed6:	51 81       	ldd	r21, Z+1	; 0x01
     ed8:	62 81       	ldd	r22, Z+2	; 0x02
     eda:	73 81       	ldd	r23, Z+3	; 0x03
     edc:	4f 5f       	subi	r20, 0xFF	; 255
     ede:	5f 4f       	sbci	r21, 0xFF	; 255
     ee0:	6f 4f       	sbci	r22, 0xFF	; 255
     ee2:	7f 4f       	sbci	r23, 0xFF	; 255
     ee4:	40 83       	st	Z, r20
     ee6:	51 83       	std	Z+1, r21	; 0x01
     ee8:	62 83       	std	Z+2, r22	; 0x02
     eea:	73 83       	std	Z+3, r23	; 0x03
     eec:	08 95       	ret

00000eee <_ZN7SysTime5MicroEv>:
}
/**
* Returns the number of Microseconds since start
*/
long SysTime::Micro() { 
	return (TCNT1 / 2) + ((ovfCount_ * sizeof(ovfCount_)) / 2);
     eee:	20 91 84 00 	lds	r18, 0x0084	; 0x800084 <__DATA_REGION_ORIGIN__+0x24>
     ef2:	30 91 85 00 	lds	r19, 0x0085	; 0x800085 <__DATA_REGION_ORIGIN__+0x25>
     ef6:	fc 01       	movw	r30, r24
     ef8:	80 81       	ld	r24, Z
     efa:	91 81       	ldd	r25, Z+1	; 0x01
     efc:	a2 81       	ldd	r26, Z+2	; 0x02
     efe:	b3 81       	ldd	r27, Z+3	; 0x03
     f00:	88 0f       	add	r24, r24
     f02:	99 1f       	adc	r25, r25
     f04:	aa 1f       	adc	r26, r26
     f06:	bb 1f       	adc	r27, r27
     f08:	88 0f       	add	r24, r24
     f0a:	99 1f       	adc	r25, r25
     f0c:	aa 1f       	adc	r26, r26
     f0e:	bb 1f       	adc	r27, r27
     f10:	b6 95       	lsr	r27
     f12:	a7 95       	ror	r26
     f14:	97 95       	ror	r25
     f16:	87 95       	ror	r24
     f18:	36 95       	lsr	r19
     f1a:	27 95       	ror	r18
     f1c:	bc 01       	movw	r22, r24
     f1e:	cd 01       	movw	r24, r26
     f20:	62 0f       	add	r22, r18
     f22:	73 1f       	adc	r23, r19
     f24:	81 1d       	adc	r24, r1
     f26:	91 1d       	adc	r25, r1
}
     f28:	08 95       	ret

00000f2a <__vector_13>:
SysTime sysTime;
ISR(TIMER1_OVF_vect) {
     f2a:	1f 92       	push	r1
     f2c:	0f 92       	push	r0
     f2e:	0f b6       	in	r0, 0x3f	; 63
     f30:	0f 92       	push	r0
     f32:	11 24       	eor	r1, r1
     f34:	2f 93       	push	r18
     f36:	3f 93       	push	r19
     f38:	4f 93       	push	r20
     f3a:	5f 93       	push	r21
     f3c:	6f 93       	push	r22
     f3e:	7f 93       	push	r23
     f40:	8f 93       	push	r24
     f42:	9f 93       	push	r25
     f44:	af 93       	push	r26
     f46:	bf 93       	push	r27
     f48:	ef 93       	push	r30
     f4a:	ff 93       	push	r31
	sysTime.Overflow();
     f4c:	8a e4       	ldi	r24, 0x4A	; 74
     f4e:	91 e0       	ldi	r25, 0x01	; 1
     f50:	0e 94 69 07 	call	0xed2	; 0xed2 <_ZN7SysTime8OverflowEv>
     f54:	ff 91       	pop	r31
     f56:	ef 91       	pop	r30
     f58:	bf 91       	pop	r27
     f5a:	af 91       	pop	r26
     f5c:	9f 91       	pop	r25
     f5e:	8f 91       	pop	r24
     f60:	7f 91       	pop	r23
     f62:	6f 91       	pop	r22
     f64:	5f 91       	pop	r21
     f66:	4f 91       	pop	r20
     f68:	3f 91       	pop	r19
     f6a:	2f 91       	pop	r18
     f6c:	0f 90       	pop	r0
     f6e:	0f be       	out	0x3f, r0	; 63
     f70:	0f 90       	pop	r0
     f72:	1f 90       	pop	r1
     f74:	18 95       	reti

00000f76 <_GLOBAL__sub_I__ZN7SysTimeC2Ev>:
* Returns the number of Microseconds since start
*/
long SysTime::Micro() { 
	return (TCNT1 / 2) + ((ovfCount_ * sizeof(ovfCount_)) / 2);
}
SysTime sysTime;
     f76:	8a e4       	ldi	r24, 0x4A	; 74
     f78:	91 e0       	ldi	r25, 0x01	; 1
     f7a:	0e 94 58 07 	call	0xeb0	; 0xeb0 <_ZN7SysTimeC1Ev>
     f7e:	08 95       	ret

00000f80 <main>:
#include "d_SysTime.h"
#include "armGeometry.h"
#include "c_interpolation.h"

int main(void)
{
     f80:	cf 93       	push	r28
     f82:	df 93       	push	r29
     f84:	cd b7       	in	r28, 0x3d	; 61
     f86:	de b7       	in	r29, 0x3e	; 62
     f88:	c0 5d       	subi	r28, 0xD0	; 208
     f8a:	d1 09       	sbc	r29, r1
     f8c:	0f b6       	in	r0, 0x3f	; 63
     f8e:	f8 94       	cli
     f90:	de bf       	out	0x3e, r29	; 62
     f92:	0f be       	out	0x3f, r0	; 63
     f94:	cd bf       	out	0x3d, r28	; 61
	// Init
	pin X_STEP_PIN(&DDRD,&PORTD,2,false);
     f96:	00 e0       	ldi	r16, 0x00	; 0
     f98:	22 e0       	ldi	r18, 0x02	; 2
     f9a:	4b e2       	ldi	r20, 0x2B	; 43
     f9c:	50 e0       	ldi	r21, 0x00	; 0
     f9e:	6a e2       	ldi	r22, 0x2A	; 42
     fa0:	70 e0       	ldi	r23, 0x00	; 0
     fa2:	ce 01       	movw	r24, r28
     fa4:	01 96       	adiw	r24, 0x01	; 1
     fa6:	0e 94 64 06 	call	0xcc8	; 0xcc8 <_ZN3pinC1EPVhS1_hb>
	pin Y_STEP_PIN(&DDRD,&PORTD,3,false);
     faa:	23 e0       	ldi	r18, 0x03	; 3
     fac:	4b e2       	ldi	r20, 0x2B	; 43
     fae:	50 e0       	ldi	r21, 0x00	; 0
     fb0:	6a e2       	ldi	r22, 0x2A	; 42
     fb2:	70 e0       	ldi	r23, 0x00	; 0
     fb4:	ce 01       	movw	r24, r28
     fb6:	05 96       	adiw	r24, 0x05	; 5
     fb8:	0e 94 64 06 	call	0xcc8	; 0xcc8 <_ZN3pinC1EPVhS1_hb>
	pin Z_STEP_PIN(&DDRD,&PORTD,4,false);
     fbc:	24 e0       	ldi	r18, 0x04	; 4
     fbe:	4b e2       	ldi	r20, 0x2B	; 43
     fc0:	50 e0       	ldi	r21, 0x00	; 0
     fc2:	6a e2       	ldi	r22, 0x2A	; 42
     fc4:	70 e0       	ldi	r23, 0x00	; 0
     fc6:	ce 01       	movw	r24, r28
     fc8:	09 96       	adiw	r24, 0x09	; 9
     fca:	0e 94 64 06 	call	0xcc8	; 0xcc8 <_ZN3pinC1EPVhS1_hb>
	pin X_DIR_PIN(&DDRD,&PORTD,5,false);
     fce:	25 e0       	ldi	r18, 0x05	; 5
     fd0:	4b e2       	ldi	r20, 0x2B	; 43
     fd2:	50 e0       	ldi	r21, 0x00	; 0
     fd4:	6a e2       	ldi	r22, 0x2A	; 42
     fd6:	70 e0       	ldi	r23, 0x00	; 0
     fd8:	ce 01       	movw	r24, r28
     fda:	0d 96       	adiw	r24, 0x0d	; 13
     fdc:	0e 94 64 06 	call	0xcc8	; 0xcc8 <_ZN3pinC1EPVhS1_hb>
	pin Y_DIR_PIN(&DDRD,&PORTD,6,false);
     fe0:	26 e0       	ldi	r18, 0x06	; 6
     fe2:	4b e2       	ldi	r20, 0x2B	; 43
     fe4:	50 e0       	ldi	r21, 0x00	; 0
     fe6:	6a e2       	ldi	r22, 0x2A	; 42
     fe8:	70 e0       	ldi	r23, 0x00	; 0
     fea:	ce 01       	movw	r24, r28
     fec:	41 96       	adiw	r24, 0x11	; 17
     fee:	0e 94 64 06 	call	0xcc8	; 0xcc8 <_ZN3pinC1EPVhS1_hb>
	pin Z_DIR_PIN(&DDRD,&PORTD,7,false);
     ff2:	27 e0       	ldi	r18, 0x07	; 7
     ff4:	4b e2       	ldi	r20, 0x2B	; 43
     ff6:	50 e0       	ldi	r21, 0x00	; 0
     ff8:	6a e2       	ldi	r22, 0x2A	; 42
     ffa:	70 e0       	ldi	r23, 0x00	; 0
     ffc:	ce 01       	movw	r24, r28
     ffe:	45 96       	adiw	r24, 0x15	; 21
    1000:	0e 94 64 06 	call	0xcc8	; 0xcc8 <_ZN3pinC1EPVhS1_hb>
	
	//pin* pinBase[] = {};
	//pin* pinLow[] = {};
	//pin* pinHigh[] = {};
		
	stepperMotor stepperBase(&X_STEP_PIN,&X_DIR_PIN);
    1004:	ae 01       	movw	r20, r28
    1006:	43 5f       	subi	r20, 0xF3	; 243
    1008:	5f 4f       	sbci	r21, 0xFF	; 255
    100a:	be 01       	movw	r22, r28
    100c:	6f 5f       	subi	r22, 0xFF	; 255
    100e:	7f 4f       	sbci	r23, 0xFF	; 255
    1010:	ce 01       	movw	r24, r28
    1012:	49 96       	adiw	r24, 0x19	; 25
    1014:	0e 94 a6 06 	call	0xd4c	; 0xd4c <_ZN12stepperMotorC1EP3pinS1_>
	stepperMotor stepperLow(&Y_STEP_PIN,&Y_DIR_PIN);
    1018:	ae 01       	movw	r20, r28
    101a:	4f 5e       	subi	r20, 0xEF	; 239
    101c:	5f 4f       	sbci	r21, 0xFF	; 255
    101e:	be 01       	movw	r22, r28
    1020:	6b 5f       	subi	r22, 0xFB	; 251
    1022:	7f 4f       	sbci	r23, 0xFF	; 255
    1024:	ce 01       	movw	r24, r28
    1026:	c6 96       	adiw	r24, 0x36	; 54
    1028:	0e 94 a6 06 	call	0xd4c	; 0xd4c <_ZN12stepperMotorC1EP3pinS1_>
	stepperMotor stepperHigh(&Z_STEP_PIN,&Z_DIR_PIN);
    102c:	ae 01       	movw	r20, r28
    102e:	4b 5e       	subi	r20, 0xEB	; 235
    1030:	5f 4f       	sbci	r21, 0xFF	; 255
    1032:	be 01       	movw	r22, r28
    1034:	67 5f       	subi	r22, 0xF7	; 247
    1036:	7f 4f       	sbci	r23, 0xFF	; 255
    1038:	ce 01       	movw	r24, r28
    103a:	8d 5a       	subi	r24, 0xAD	; 173
    103c:	9f 4f       	sbci	r25, 0xFF	; 255
    103e:	0e 94 a6 06 	call	0xd4c	; 0xd4c <_ZN12stepperMotorC1EP3pinS1_>

	armGeometry geometry;
    1042:	ce 01       	movw	r24, r28
    1044:	80 59       	subi	r24, 0x90	; 144
    1046:	9f 4f       	sbci	r25, 0xFF	; 255
    1048:	0e 94 8c 00 	call	0x118	; 0x118 <_ZN11armGeometryC1Ev>
	Interpolation interpolator;
    104c:	ce 01       	movw	r24, r28
    104e:	88 57       	subi	r24, 0x78	; 120
    1050:	9f 4f       	sbci	r25, 0xFF	; 255
    1052:	0e 94 d7 01 	call	0x3ae	; 0x3ae <_ZN13InterpolationC1Ev>
	
	stepperHigh.setReductionRatio(32.0 / 9.0, 200);  //big gear: 32, small gear: 9, steps per rev: 200,
    1056:	28 ec       	ldi	r18, 0xC8	; 200
    1058:	30 e0       	ldi	r19, 0x00	; 0
    105a:	49 e3       	ldi	r20, 0x39	; 57
    105c:	5e e8       	ldi	r21, 0x8E	; 142
    105e:	63 e6       	ldi	r22, 0x63	; 99
    1060:	70 e4       	ldi	r23, 0x40	; 64
    1062:	ce 01       	movw	r24, r28
    1064:	8d 5a       	subi	r24, 0xAD	; 173
    1066:	9f 4f       	sbci	r25, 0xFF	; 255
    1068:	0e 94 2e 07 	call	0xe5c	; 0xe5c <_ZN12stepperMotor17setReductionRatioEfi>
	stepperLow.setReductionRatio( 32.0 / 9.0, 200);
    106c:	28 ec       	ldi	r18, 0xC8	; 200
    106e:	30 e0       	ldi	r19, 0x00	; 0
    1070:	49 e3       	ldi	r20, 0x39	; 57
    1072:	5e e8       	ldi	r21, 0x8E	; 142
    1074:	63 e6       	ldi	r22, 0x63	; 99
    1076:	70 e4       	ldi	r23, 0x40	; 64
    1078:	ce 01       	movw	r24, r28
    107a:	c6 96       	adiw	r24, 0x36	; 54
    107c:	0e 94 2e 07 	call	0xe5c	; 0xe5c <_ZN12stepperMotor17setReductionRatioEfi>
	stepperBase.setReductionRatio(32.0 / 9.0, 200);
    1080:	28 ec       	ldi	r18, 0xC8	; 200
    1082:	30 e0       	ldi	r19, 0x00	; 0
    1084:	49 e3       	ldi	r20, 0x39	; 57
    1086:	5e e8       	ldi	r21, 0x8E	; 142
    1088:	63 e6       	ldi	r22, 0x63	; 99
    108a:	70 e4       	ldi	r23, 0x40	; 64
    108c:	ce 01       	movw	r24, r28
    108e:	49 96       	adiw	r24, 0x19	; 25
    1090:	0e 94 2e 07 	call	0xe5c	; 0xe5c <_ZN12stepperMotor17setReductionRatioEfi>
	
	//start positions..
	stepperHigh.setPositionRad(M_PI / 2.0); //90
    1094:	4b ed       	ldi	r20, 0xDB	; 219
    1096:	5f e0       	ldi	r21, 0x0F	; 15
    1098:	69 ec       	ldi	r22, 0xC9	; 201
    109a:	7f e3       	ldi	r23, 0x3F	; 63
    109c:	ce 01       	movw	r24, r28
    109e:	8d 5a       	subi	r24, 0xAD	; 173
    10a0:	9f 4f       	sbci	r25, 0xFF	; 255
    10a2:	0e 94 ac 06 	call	0xd58	; 0xd58 <_ZN12stepperMotor14setPositionRadEf>
	stepperLow.setPositionRad(0);			// 0
    10a6:	40 e0       	ldi	r20, 0x00	; 0
    10a8:	50 e0       	ldi	r21, 0x00	; 0
    10aa:	ba 01       	movw	r22, r20
    10ac:	ce 01       	movw	r24, r28
    10ae:	c6 96       	adiw	r24, 0x36	; 54
    10b0:	0e 94 ac 06 	call	0xd58	; 0xd58 <_ZN12stepperMotor14setPositionRadEf>
	stepperBase.setPositionRad(0);			// 0
    10b4:	40 e0       	ldi	r20, 0x00	; 0
    10b6:	50 e0       	ldi	r21, 0x00	; 0
    10b8:	ba 01       	movw	r22, r20
    10ba:	ce 01       	movw	r24, r28
    10bc:	49 96       	adiw	r24, 0x19	; 25
    10be:	0e 94 ac 06 	call	0xd58	; 0xd58 <_ZN12stepperMotor14setPositionRadEf>
	
	// Init interpolation and uart
	interpolator.setInterpolation(0,120,120,0, 0,120,120,0);
    10c2:	1f 92       	push	r1
    10c4:	1f 92       	push	r1
    10c6:	1f 92       	push	r1
    10c8:	1f 92       	push	r1
    10ca:	1f 92       	push	r1
    10cc:	1f 92       	push	r1
    10ce:	1f 92       	push	r1
    10d0:	1f 92       	push	r1
    10d2:	92 e4       	ldi	r25, 0x42	; 66
    10d4:	9f 93       	push	r25
    10d6:	80 ef       	ldi	r24, 0xF0	; 240
    10d8:	8f 93       	push	r24
    10da:	1f 92       	push	r1
    10dc:	1f 92       	push	r1
    10de:	9f 93       	push	r25
    10e0:	8f 93       	push	r24
    10e2:	1f 92       	push	r1
    10e4:	1f 92       	push	r1
    10e6:	1f 92       	push	r1
    10e8:	1f 92       	push	r1
    10ea:	1f 92       	push	r1
    10ec:	1f 92       	push	r1
    10ee:	81 2c       	mov	r8, r1
    10f0:	91 2c       	mov	r9, r1
    10f2:	54 01       	movw	r10, r8
    10f4:	0f 2e       	mov	r0, r31
    10f6:	c1 2c       	mov	r12, r1
    10f8:	d1 2c       	mov	r13, r1
    10fa:	f0 ef       	ldi	r31, 0xF0	; 240
    10fc:	ef 2e       	mov	r14, r31
    10fe:	f2 e4       	ldi	r31, 0x42	; 66
    1100:	ff 2e       	mov	r15, r31
    1102:	f0 2d       	mov	r31, r0
    1104:	97 01       	movw	r18, r14
    1106:	86 01       	movw	r16, r12
    1108:	b5 01       	movw	r22, r10
    110a:	a4 01       	movw	r20, r8
    110c:	ce 01       	movw	r24, r28
    110e:	88 57       	subi	r24, 0x78	; 120
    1110:	9f 4f       	sbci	r25, 0xFF	; 255
    1112:	0e 94 90 04 	call	0x920	; 0x920 <_ZN13Interpolation16setInterpolationEfffffffff>
	InitUART(UART0,115200,8,0);
    1116:	00 e0       	ldi	r16, 0x00	; 0
    1118:	28 e0       	ldi	r18, 0x08	; 8
    111a:	40 e0       	ldi	r20, 0x00	; 0
    111c:	52 ec       	ldi	r21, 0xC2	; 194
    111e:	61 e0       	ldi	r22, 0x01	; 1
    1120:	70 e0       	ldi	r23, 0x00	; 0
    1122:	80 ec       	ldi	r24, 0xC0	; 192
    1124:	90 e0       	ldi	r25, 0x00	; 0
    1126:	0e 94 4e 09 	call	0x129c	; 0x129c <_Z8InitUARTjmhc>
	
	//Init test environment
	pin ptest(&DDRC,&PINC,5,true);
    112a:	01 e0       	ldi	r16, 0x01	; 1
    112c:	25 e0       	ldi	r18, 0x05	; 5
    112e:	46 e2       	ldi	r20, 0x26	; 38
    1130:	50 e0       	ldi	r21, 0x00	; 0
    1132:	67 e2       	ldi	r22, 0x27	; 39
    1134:	70 e0       	ldi	r23, 0x00	; 0
    1136:	ce 01       	movw	r24, r28
    1138:	87 53       	subi	r24, 0x37	; 55
    113a:	9f 4f       	sbci	r25, 0xFF	; 255
    113c:	0e 94 64 06 	call	0xcc8	; 0xcc8 <_ZN3pinC1EPVhS1_hb>
	int nPushed = 0;
	SysTime testTimer;
    1140:	ce 01       	movw	r24, r28
    1142:	83 53       	subi	r24, 0x33	; 51
    1144:	9f 4f       	sbci	r25, 0xFF	; 255
    1146:	0e 94 58 07 	call	0xeb0	; 0xeb0 <_ZN7SysTimeC1Ev>
    114a:	0f b6       	in	r0, 0x3f	; 63
    114c:	f8 94       	cli
    114e:	de bf       	out	0x3e, r29	; 62
    1150:	0f be       	out	0x3f, r0	; 63
    1152:	cd bf       	out	0x3d, r28	; 61
	interpolator.setInterpolation(0,120,120,0, 0,120,120,0);
	InitUART(UART0,115200,8,0);
	
	//Init test environment
	pin ptest(&DDRC,&PINC,5,true);
	int nPushed = 0;
    1154:	a1 2c       	mov	r10, r1
    1156:	b1 2c       	mov	r11, r1
		{
			SendString(UART0,"Trykket ned\n\r");
			SendInteger(UART0,interpolator.getZPosmm());
			SendString(UART0,"\n\r");
			interpolator.setInterpolation(50,120,120,0,6);
			nPushed++;
    1158:	33 24       	eor	r3, r3
    115a:	33 94       	inc	r3
    115c:	21 2c       	mov	r2, r1
	
	//Loop
	while (1)
	{
		
		interpolator.updateActualPosition();
    115e:	ce 01       	movw	r24, r28
    1160:	88 57       	subi	r24, 0x78	; 120
    1162:	9f 4f       	sbci	r25, 0xFF	; 255
    1164:	0e 94 1f 05 	call	0xa3e	; 0xa3e <_ZN13Interpolation20updateActualPositionEv>
		geometry.set(interpolator.getXPosmm(), interpolator.getYPosmm(), interpolator.getZPosmm());
    1168:	ce 01       	movw	r24, r28
    116a:	88 57       	subi	r24, 0x78	; 120
    116c:	9f 4f       	sbci	r25, 0xFF	; 255
    116e:	0e 94 36 06 	call	0xc6c	; 0xc6c <_ZNK13Interpolation9getZPosmmEv>
    1172:	6b 01       	movw	r12, r22
    1174:	7c 01       	movw	r14, r24
    1176:	ce 01       	movw	r24, r28
    1178:	88 57       	subi	r24, 0x78	; 120
    117a:	9f 4f       	sbci	r25, 0xFF	; 255
    117c:	0e 94 30 06 	call	0xc60	; 0xc60 <_ZNK13Interpolation9getYPosmmEv>
    1180:	2b 01       	movw	r4, r22
    1182:	3c 01       	movw	r6, r24
    1184:	ce 01       	movw	r24, r28
    1186:	88 57       	subi	r24, 0x78	; 120
    1188:	9f 4f       	sbci	r25, 0xFF	; 255
    118a:	0e 94 2a 06 	call	0xc54	; 0xc54 <_ZNK13Interpolation9getXPosmmEv>
    118e:	ab 01       	movw	r20, r22
    1190:	bc 01       	movw	r22, r24
    1192:	93 01       	movw	r18, r6
    1194:	82 01       	movw	r16, r4
    1196:	ce 01       	movw	r24, r28
    1198:	80 59       	subi	r24, 0x90	; 144
    119a:	9f 4f       	sbci	r25, 0xFF	; 255
    119c:	0e 94 bb 01 	call	0x376	; 0x376 <_ZN11armGeometry3setEfff>
		stepperBase.stepToPositionRad(geometry.getRotRad());
    11a0:	ce 01       	movw	r24, r28
    11a2:	80 59       	subi	r24, 0x90	; 144
    11a4:	9f 4f       	sbci	r25, 0xFF	; 255
    11a6:	0e 94 8d 00 	call	0x11a	; 0x11a <_ZNK11armGeometry9getRotRadEv>
    11aa:	ab 01       	movw	r20, r22
    11ac:	bc 01       	movw	r22, r24
    11ae:	ce 01       	movw	r24, r28
    11b0:	49 96       	adiw	r24, 0x19	; 25
    11b2:	0e 94 c0 06 	call	0xd80	; 0xd80 <_ZN12stepperMotor17stepToPositionRadEf>
		stepperLow.stepToPositionRad(geometry.getLowRad());
    11b6:	ce 01       	movw	r24, r28
    11b8:	80 59       	subi	r24, 0x90	; 144
    11ba:	9f 4f       	sbci	r25, 0xFF	; 255
    11bc:	0e 94 93 00 	call	0x126	; 0x126 <_ZNK11armGeometry9getLowRadEv>
    11c0:	ab 01       	movw	r20, r22
    11c2:	bc 01       	movw	r22, r24
    11c4:	ce 01       	movw	r24, r28
    11c6:	c6 96       	adiw	r24, 0x36	; 54
    11c8:	0e 94 c0 06 	call	0xd80	; 0xd80 <_ZN12stepperMotor17stepToPositionRadEf>
		stepperHigh.stepToPositionRad(geometry.getHighRad());
    11cc:	ce 01       	movw	r24, r28
    11ce:	80 59       	subi	r24, 0x90	; 144
    11d0:	9f 4f       	sbci	r25, 0xFF	; 255
    11d2:	0e 94 99 00 	call	0x132	; 0x132 <_ZNK11armGeometry10getHighRadEv>
    11d6:	ab 01       	movw	r20, r22
    11d8:	bc 01       	movw	r22, r24
    11da:	ce 01       	movw	r24, r28
    11dc:	8d 5a       	subi	r24, 0xAD	; 173
    11de:	9f 4f       	sbci	r25, 0xFF	; 255
    11e0:	0e 94 c0 06 	call	0xd80	; 0xd80 <_ZN12stepperMotor17stepToPositionRadEf>
		
		stepperBase.update();
    11e4:	ce 01       	movw	r24, r28
    11e6:	49 96       	adiw	r24, 0x19	; 25
    11e8:	0e 94 d2 06 	call	0xda4	; 0xda4 <_ZN12stepperMotor6updateEv>
		stepperLow.update();
    11ec:	ce 01       	movw	r24, r28
    11ee:	c6 96       	adiw	r24, 0x36	; 54
    11f0:	0e 94 d2 06 	call	0xda4	; 0xda4 <_ZN12stepperMotor6updateEv>
		stepperHigh.update();
    11f4:	ce 01       	movw	r24, r28
    11f6:	8d 5a       	subi	r24, 0xAD	; 173
    11f8:	9f 4f       	sbci	r25, 0xFF	; 255
    11fa:	0e 94 d2 06 	call	0xda4	; 0xda4 <_ZN12stepperMotor6updateEv>
		
		
		if ((ptest.readValue()) && nPushed == 0)
    11fe:	ce 01       	movw	r24, r28
    1200:	87 53       	subi	r24, 0x37	; 55
    1202:	9f 4f       	sbci	r25, 0xFF	; 255
    1204:	0e 94 8f 06 	call	0xd1e	; 0xd1e <_ZN3pin9readValueEv>
    1208:	88 23       	and	r24, r24
    120a:	09 f4       	brne	.+2      	; 0x120e <main+0x28e>
    120c:	a8 cf       	rjmp	.-176    	; 0x115e <main+0x1de>
    120e:	a1 14       	cp	r10, r1
    1210:	b1 04       	cpc	r11, r1
    1212:	09 f0       	breq	.+2      	; 0x1216 <main+0x296>
    1214:	a4 cf       	rjmp	.-184    	; 0x115e <main+0x1de>
		{
			SendString(UART0,"Trykket ned\n\r");
    1216:	6c e3       	ldi	r22, 0x3C	; 60
    1218:	71 e0       	ldi	r23, 0x01	; 1
    121a:	80 ec       	ldi	r24, 0xC0	; 192
    121c:	90 e0       	ldi	r25, 0x00	; 0
    121e:	0e 94 a8 09 	call	0x1350	; 0x1350 <_Z10SendStringjPc>
			SendInteger(UART0,interpolator.getZPosmm());
    1222:	ce 01       	movw	r24, r28
    1224:	88 57       	subi	r24, 0x78	; 120
    1226:	9f 4f       	sbci	r25, 0xFF	; 255
    1228:	0e 94 36 06 	call	0xc6c	; 0xc6c <_ZNK13Interpolation9getZPosmmEv>
    122c:	0e 94 f7 0a 	call	0x15ee	; 0x15ee <__fixsfsi>
    1230:	80 ec       	ldi	r24, 0xC0	; 192
    1232:	90 e0       	ldi	r25, 0x00	; 0
    1234:	0e 94 bd 09 	call	0x137a	; 0x137a <_Z11SendIntegerji>
			SendString(UART0,"\n\r");
    1238:	67 e4       	ldi	r22, 0x47	; 71
    123a:	71 e0       	ldi	r23, 0x01	; 1
    123c:	80 ec       	ldi	r24, 0xC0	; 192
    123e:	90 e0       	ldi	r25, 0x00	; 0
    1240:	0e 94 a8 09 	call	0x1350	; 0x1350 <_Z10SendStringjPc>
			interpolator.setInterpolation(50,120,120,0,6);
    1244:	80 e4       	ldi	r24, 0x40	; 64
    1246:	8f 93       	push	r24
    1248:	80 ec       	ldi	r24, 0xC0	; 192
    124a:	8f 93       	push	r24
    124c:	1f 92       	push	r1
    124e:	1f 92       	push	r1
    1250:	81 2c       	mov	r8, r1
    1252:	91 2c       	mov	r9, r1
    1254:	54 01       	movw	r10, r8
    1256:	0f 2e       	mov	r0, r31
    1258:	c1 2c       	mov	r12, r1
    125a:	d1 2c       	mov	r13, r1
    125c:	f0 ef       	ldi	r31, 0xF0	; 240
    125e:	ef 2e       	mov	r14, r31
    1260:	f2 e4       	ldi	r31, 0x42	; 66
    1262:	ff 2e       	mov	r15, r31
    1264:	f0 2d       	mov	r31, r0
    1266:	97 01       	movw	r18, r14
    1268:	86 01       	movw	r16, r12
    126a:	40 e0       	ldi	r20, 0x00	; 0
    126c:	50 e0       	ldi	r21, 0x00	; 0
    126e:	68 e4       	ldi	r22, 0x48	; 72
    1270:	72 e4       	ldi	r23, 0x42	; 66
    1272:	ce 01       	movw	r24, r28
    1274:	88 57       	subi	r24, 0x78	; 120
    1276:	9f 4f       	sbci	r25, 0xFF	; 255
    1278:	0e 94 3b 04 	call	0x876	; 0x876 <_ZN13Interpolation16setInterpolationEfffff>
	#else
		//round up by default
		__ticks_dc = (uint32_t)(ceil(fabs(__tmp)));
	#endif

	__builtin_avr_delay_cycles(__ticks_dc);
    127c:	9f ef       	ldi	r25, 0xFF	; 255
    127e:	29 e6       	ldi	r18, 0x69	; 105
    1280:	88 e1       	ldi	r24, 0x18	; 24
    1282:	91 50       	subi	r25, 0x01	; 1
    1284:	20 40       	sbci	r18, 0x00	; 0
    1286:	80 40       	sbci	r24, 0x00	; 0
    1288:	e1 f7       	brne	.-8      	; 0x1282 <main+0x302>
    128a:	00 c0       	rjmp	.+0      	; 0x128c <main+0x30c>
    128c:	00 00       	nop
			nPushed++;
    128e:	a3 2c       	mov	r10, r3
    1290:	b2 2c       	mov	r11, r2
    1292:	0f 90       	pop	r0
    1294:	0f 90       	pop	r0
    1296:	0f 90       	pop	r0
    1298:	0f 90       	pop	r0
    129a:	61 cf       	rjmp	.-318    	; 0x115e <main+0x1de>

0000129c <_Z8InitUARTjmhc>:
  // Wait for new character received
  while ( (UCSRnA & (1<<7)) == 0 )
  {}                        
  // Then return it
  return UDRn;
}
    129c:	0f 93       	push	r16
    129e:	cf 93       	push	r28
    12a0:	df 93       	push	r29
    12a2:	ec 01       	movw	r28, r24
    12a4:	db 01       	movw	r26, r22
    12a6:	ca 01       	movw	r24, r20
    12a8:	8c 52       	subi	r24, 0x2C	; 44
    12aa:	91 40       	sbci	r25, 0x01	; 1
    12ac:	a1 09       	sbc	r26, r1
    12ae:	b1 09       	sbc	r27, r1
    12b0:	85 3d       	cpi	r24, 0xD5	; 213
    12b2:	90 4c       	sbci	r25, 0xC0	; 192
    12b4:	a1 40       	sbci	r26, 0x01	; 1
    12b6:	b1 05       	cpc	r27, r1
    12b8:	08 f0       	brcs	.+2      	; 0x12bc <_Z8InitUARTjmhc+0x20>
    12ba:	40 c0       	rjmp	.+128    	; 0x133c <_Z8InitUARTjmhc+0xa0>
    12bc:	25 50       	subi	r18, 0x05	; 5
    12be:	24 30       	cpi	r18, 0x04	; 4
    12c0:	e8 f5       	brcc	.+122    	; 0x133c <_Z8InitUARTjmhc+0xa0>
    12c2:	80 e2       	ldi	r24, 0x20	; 32
    12c4:	88 83       	st	Y, r24
    12c6:	88 e1       	ldi	r24, 0x18	; 24
    12c8:	89 83       	std	Y+1, r24	; 0x01
    12ca:	22 0f       	add	r18, r18
    12cc:	2a 83       	std	Y+2, r18	; 0x02
    12ce:	05 34       	cpi	r16, 0x45	; 69
    12d0:	21 f4       	brne	.+8      	; 0x12da <_Z8InitUARTjmhc+0x3e>
    12d2:	8a 81       	ldd	r24, Y+2	; 0x02
    12d4:	80 62       	ori	r24, 0x20	; 32
    12d6:	8a 83       	std	Y+2, r24	; 0x02
    12d8:	05 c0       	rjmp	.+10     	; 0x12e4 <_Z8InitUARTjmhc+0x48>
    12da:	0f 34       	cpi	r16, 0x4F	; 79
    12dc:	19 f4       	brne	.+6      	; 0x12e4 <_Z8InitUARTjmhc+0x48>
    12de:	8a 81       	ldd	r24, Y+2	; 0x02
    12e0:	80 63       	ori	r24, 0x30	; 48
    12e2:	8a 83       	std	Y+2, r24	; 0x02
    12e4:	db 01       	movw	r26, r22
    12e6:	ca 01       	movw	r24, r20
    12e8:	80 58       	subi	r24, 0x80	; 128
    12ea:	9b 47       	sbci	r25, 0x7B	; 123
    12ec:	a1 4e       	sbci	r26, 0xE1	; 225
    12ee:	bf 4f       	sbci	r27, 0xFF	; 255
    12f0:	88 0f       	add	r24, r24
    12f2:	99 1f       	adc	r25, r25
    12f4:	aa 1f       	adc	r26, r26
    12f6:	bb 1f       	adc	r27, r27
    12f8:	88 0f       	add	r24, r24
    12fa:	99 1f       	adc	r25, r25
    12fc:	aa 1f       	adc	r26, r26
    12fe:	bb 1f       	adc	r27, r27
    1300:	88 0f       	add	r24, r24
    1302:	99 1f       	adc	r25, r25
    1304:	aa 1f       	adc	r26, r26
    1306:	bb 1f       	adc	r27, r27
    1308:	44 0f       	add	r20, r20
    130a:	55 1f       	adc	r21, r21
    130c:	66 1f       	adc	r22, r22
    130e:	77 1f       	adc	r23, r23
    1310:	44 0f       	add	r20, r20
    1312:	55 1f       	adc	r21, r21
    1314:	66 1f       	adc	r22, r22
    1316:	77 1f       	adc	r23, r23
    1318:	9a 01       	movw	r18, r20
    131a:	ab 01       	movw	r20, r22
    131c:	22 0f       	add	r18, r18
    131e:	33 1f       	adc	r19, r19
    1320:	44 1f       	adc	r20, r20
    1322:	55 1f       	adc	r21, r21
    1324:	22 0f       	add	r18, r18
    1326:	33 1f       	adc	r19, r19
    1328:	44 1f       	adc	r20, r20
    132a:	55 1f       	adc	r21, r21
    132c:	bc 01       	movw	r22, r24
    132e:	cd 01       	movw	r24, r26
    1330:	0e 94 46 0d 	call	0x1a8c	; 0x1a8c <__udivmodsi4>
    1334:	21 50       	subi	r18, 0x01	; 1
    1336:	31 09       	sbc	r19, r1
    1338:	3d 83       	std	Y+5, r19	; 0x05
    133a:	2c 83       	std	Y+4, r18	; 0x04
    133c:	df 91       	pop	r29
    133e:	cf 91       	pop	r28
    1340:	0f 91       	pop	r16
    1342:	08 95       	ret

00001344 <_Z8SendCharjc>:
Then send the character.
Parameter :
	Tegn : Character for sending. 
*************************************************************************/
void SendChar(unsigned int UART_adr, char Tegn)
{
    1344:	fc 01       	movw	r30, r24
  // Wait for transmitter register empty (ready for new character)
  while ( (UCSRnA & (1<<5)) == 0 )
    1346:	90 81       	ld	r25, Z
    1348:	95 ff       	sbrs	r25, 5
    134a:	fd cf       	rjmp	.-6      	; 0x1346 <_Z8SendCharjc+0x2>
  {}
  // Then send the character
  UDRn = Tegn;
    134c:	66 83       	std	Z+6, r22	; 0x06
    134e:	08 95       	ret

00001350 <_Z10SendStringjPc>:
Sends 0 terminated string.
Parameter:
   Streng: Pointer to the string. 
*************************************************************************/
void SendString(unsigned int UART_adr, char* Streng)
{
    1350:	0f 93       	push	r16
    1352:	1f 93       	push	r17
    1354:	cf 93       	push	r28
    1356:	df 93       	push	r29
    1358:	eb 01       	movw	r28, r22
  // Repeat until zero-termination
  while (*Streng != 0)
    135a:	68 81       	ld	r22, Y
    135c:	66 23       	and	r22, r22
    135e:	41 f0       	breq	.+16     	; 0x1370 <_Z10SendStringjPc+0x20>
    1360:	8c 01       	movw	r16, r24
    1362:	21 96       	adiw	r28, 0x01	; 1
  {
    // Send the character pointed to by "Streng"
    SendChar(UART_adr, *Streng);
    1364:	c8 01       	movw	r24, r16
    1366:	0e 94 a2 09 	call	0x1344	; 0x1344 <_Z8SendCharjc>
   Streng: Pointer to the string. 
*************************************************************************/
void SendString(unsigned int UART_adr, char* Streng)
{
  // Repeat until zero-termination
  while (*Streng != 0)
    136a:	69 91       	ld	r22, Y+
    136c:	61 11       	cpse	r22, r1
    136e:	fa cf       	rjmp	.-12     	; 0x1364 <_Z10SendStringjPc+0x14>
    // Send the character pointed to by "Streng"
    SendChar(UART_adr, *Streng);
    // Advance the pointer one step
    Streng++;
  }
}
    1370:	df 91       	pop	r29
    1372:	cf 91       	pop	r28
    1374:	1f 91       	pop	r17
    1376:	0f 91       	pop	r16
    1378:	08 95       	ret

0000137a <_Z11SendIntegerji>:
Makes use of the C standard library <stdlib.h>.
Parameter:
    Tal: The integer to be converted and sent. 
*************************************************************************/
void SendInteger(unsigned int UART_adr, int Tal)
{
    137a:	0f 93       	push	r16
    137c:	1f 93       	push	r17
    137e:	cf 93       	push	r28
    1380:	df 93       	push	r29
    1382:	cd b7       	in	r28, 0x3d	; 61
    1384:	de b7       	in	r29, 0x3e	; 62
    1386:	27 97       	sbiw	r28, 0x07	; 7
    1388:	0f b6       	in	r0, 0x3f	; 63
    138a:	f8 94       	cli
    138c:	de bf       	out	0x3e, r29	; 62
    138e:	0f be       	out	0x3f, r0	; 63
    1390:	cd bf       	out	0x3d, r28	; 61
    1392:	8c 01       	movw	r16, r24
    1394:	cb 01       	movw	r24, r22
    } else if (__radix < 2 || __radix > 36) {
	*__s = 0;
	return __s;
    } else {
	extern char *__itoa_ncheck (int, char *, unsigned char);
	return __itoa_ncheck (__val, __s, __radix);
    1396:	4a e0       	ldi	r20, 0x0A	; 10
    1398:	be 01       	movw	r22, r28
    139a:	6f 5f       	subi	r22, 0xFF	; 255
    139c:	7f 4f       	sbci	r23, 0xFF	; 255
    139e:	0e 94 6e 0d 	call	0x1adc	; 0x1adc <__itoa_ncheck>
char array[7];
  // Convert the integer to an ASCII string (array), radix = 10 
  itoa(Tal, array, 10);
  // - then send the string
  SendString(UART_adr, array);
    13a2:	be 01       	movw	r22, r28
    13a4:	6f 5f       	subi	r22, 0xFF	; 255
    13a6:	7f 4f       	sbci	r23, 0xFF	; 255
    13a8:	c8 01       	movw	r24, r16
    13aa:	0e 94 a8 09 	call	0x1350	; 0x1350 <_Z10SendStringjPc>
}
    13ae:	27 96       	adiw	r28, 0x07	; 7
    13b0:	0f b6       	in	r0, 0x3f	; 63
    13b2:	f8 94       	cli
    13b4:	de bf       	out	0x3e, r29	; 62
    13b6:	0f be       	out	0x3f, r0	; 63
    13b8:	cd bf       	out	0x3d, r28	; 61
    13ba:	df 91       	pop	r29
    13bc:	cf 91       	pop	r28
    13be:	1f 91       	pop	r17
    13c0:	0f 91       	pop	r16
    13c2:	08 95       	ret

000013c4 <acos>:
    13c4:	9f 93       	push	r25
    13c6:	9f 77       	andi	r25, 0x7F	; 127
    13c8:	0e 94 6a 0b 	call	0x16d4	; 0x16d4 <__fp_arccos>
    13cc:	0f 90       	pop	r0
    13ce:	00 20       	and	r0, r0
    13d0:	42 f4       	brpl	.+16     	; 0x13e2 <acos+0x1e>
    13d2:	90 58       	subi	r25, 0x80	; 128
    13d4:	a2 ea       	ldi	r26, 0xA2	; 162
    13d6:	2a ed       	ldi	r18, 0xDA	; 218
    13d8:	3f e0       	ldi	r19, 0x0F	; 15
    13da:	49 e4       	ldi	r20, 0x49	; 73
    13dc:	50 e4       	ldi	r21, 0x40	; 64
    13de:	0e 94 0b 0a 	call	0x1416	; 0x1416 <__addsf3x>
    13e2:	0c 94 2b 0c 	jmp	0x1856	; 0x1856 <__fp_round>

000013e6 <__subsf3>:
    13e6:	50 58       	subi	r21, 0x80	; 128

000013e8 <__addsf3>:
    13e8:	bb 27       	eor	r27, r27
    13ea:	aa 27       	eor	r26, r26
    13ec:	0e 94 0b 0a 	call	0x1416	; 0x1416 <__addsf3x>
    13f0:	0c 94 2b 0c 	jmp	0x1856	; 0x1856 <__fp_round>
    13f4:	0e 94 f2 0b 	call	0x17e4	; 0x17e4 <__fp_pscA>
    13f8:	38 f0       	brcs	.+14     	; 0x1408 <__addsf3+0x20>
    13fa:	0e 94 f9 0b 	call	0x17f2	; 0x17f2 <__fp_pscB>
    13fe:	20 f0       	brcs	.+8      	; 0x1408 <__addsf3+0x20>
    1400:	39 f4       	brne	.+14     	; 0x1410 <__addsf3+0x28>
    1402:	9f 3f       	cpi	r25, 0xFF	; 255
    1404:	19 f4       	brne	.+6      	; 0x140c <__addsf3+0x24>
    1406:	26 f4       	brtc	.+8      	; 0x1410 <__addsf3+0x28>
    1408:	0c 94 b4 0b 	jmp	0x1768	; 0x1768 <__fp_nan>
    140c:	0e f4       	brtc	.+2      	; 0x1410 <__addsf3+0x28>
    140e:	e0 95       	com	r30
    1410:	e7 fb       	bst	r30, 7
    1412:	0c 94 ae 0b 	jmp	0x175c	; 0x175c <__fp_inf>

00001416 <__addsf3x>:
    1416:	e9 2f       	mov	r30, r25
    1418:	0e 94 50 0c 	call	0x18a0	; 0x18a0 <__fp_split3>
    141c:	58 f3       	brcs	.-42     	; 0x13f4 <__addsf3+0xc>
    141e:	ba 17       	cp	r27, r26
    1420:	62 07       	cpc	r22, r18
    1422:	73 07       	cpc	r23, r19
    1424:	84 07       	cpc	r24, r20
    1426:	95 07       	cpc	r25, r21
    1428:	20 f0       	brcs	.+8      	; 0x1432 <__addsf3x+0x1c>
    142a:	79 f4       	brne	.+30     	; 0x144a <__addsf3x+0x34>
    142c:	a6 f5       	brtc	.+104    	; 0x1496 <__addsf3x+0x80>
    142e:	0c 94 72 0c 	jmp	0x18e4	; 0x18e4 <__fp_zero>
    1432:	0e f4       	brtc	.+2      	; 0x1436 <__addsf3x+0x20>
    1434:	e0 95       	com	r30
    1436:	0b 2e       	mov	r0, r27
    1438:	ba 2f       	mov	r27, r26
    143a:	a0 2d       	mov	r26, r0
    143c:	0b 01       	movw	r0, r22
    143e:	b9 01       	movw	r22, r18
    1440:	90 01       	movw	r18, r0
    1442:	0c 01       	movw	r0, r24
    1444:	ca 01       	movw	r24, r20
    1446:	a0 01       	movw	r20, r0
    1448:	11 24       	eor	r1, r1
    144a:	ff 27       	eor	r31, r31
    144c:	59 1b       	sub	r21, r25
    144e:	99 f0       	breq	.+38     	; 0x1476 <__addsf3x+0x60>
    1450:	59 3f       	cpi	r21, 0xF9	; 249
    1452:	50 f4       	brcc	.+20     	; 0x1468 <__addsf3x+0x52>
    1454:	50 3e       	cpi	r21, 0xE0	; 224
    1456:	68 f1       	brcs	.+90     	; 0x14b2 <__addsf3x+0x9c>
    1458:	1a 16       	cp	r1, r26
    145a:	f0 40       	sbci	r31, 0x00	; 0
    145c:	a2 2f       	mov	r26, r18
    145e:	23 2f       	mov	r18, r19
    1460:	34 2f       	mov	r19, r20
    1462:	44 27       	eor	r20, r20
    1464:	58 5f       	subi	r21, 0xF8	; 248
    1466:	f3 cf       	rjmp	.-26     	; 0x144e <__addsf3x+0x38>
    1468:	46 95       	lsr	r20
    146a:	37 95       	ror	r19
    146c:	27 95       	ror	r18
    146e:	a7 95       	ror	r26
    1470:	f0 40       	sbci	r31, 0x00	; 0
    1472:	53 95       	inc	r21
    1474:	c9 f7       	brne	.-14     	; 0x1468 <__addsf3x+0x52>
    1476:	7e f4       	brtc	.+30     	; 0x1496 <__addsf3x+0x80>
    1478:	1f 16       	cp	r1, r31
    147a:	ba 0b       	sbc	r27, r26
    147c:	62 0b       	sbc	r22, r18
    147e:	73 0b       	sbc	r23, r19
    1480:	84 0b       	sbc	r24, r20
    1482:	ba f0       	brmi	.+46     	; 0x14b2 <__addsf3x+0x9c>
    1484:	91 50       	subi	r25, 0x01	; 1
    1486:	a1 f0       	breq	.+40     	; 0x14b0 <__addsf3x+0x9a>
    1488:	ff 0f       	add	r31, r31
    148a:	bb 1f       	adc	r27, r27
    148c:	66 1f       	adc	r22, r22
    148e:	77 1f       	adc	r23, r23
    1490:	88 1f       	adc	r24, r24
    1492:	c2 f7       	brpl	.-16     	; 0x1484 <__addsf3x+0x6e>
    1494:	0e c0       	rjmp	.+28     	; 0x14b2 <__addsf3x+0x9c>
    1496:	ba 0f       	add	r27, r26
    1498:	62 1f       	adc	r22, r18
    149a:	73 1f       	adc	r23, r19
    149c:	84 1f       	adc	r24, r20
    149e:	48 f4       	brcc	.+18     	; 0x14b2 <__addsf3x+0x9c>
    14a0:	87 95       	ror	r24
    14a2:	77 95       	ror	r23
    14a4:	67 95       	ror	r22
    14a6:	b7 95       	ror	r27
    14a8:	f7 95       	ror	r31
    14aa:	9e 3f       	cpi	r25, 0xFE	; 254
    14ac:	08 f0       	brcs	.+2      	; 0x14b0 <__addsf3x+0x9a>
    14ae:	b0 cf       	rjmp	.-160    	; 0x1410 <__addsf3+0x28>
    14b0:	93 95       	inc	r25
    14b2:	88 0f       	add	r24, r24
    14b4:	08 f0       	brcs	.+2      	; 0x14b8 <__addsf3x+0xa2>
    14b6:	99 27       	eor	r25, r25
    14b8:	ee 0f       	add	r30, r30
    14ba:	97 95       	ror	r25
    14bc:	87 95       	ror	r24
    14be:	08 95       	ret

000014c0 <asin>:
    14c0:	9f 93       	push	r25
    14c2:	9f 77       	andi	r25, 0x7F	; 127
    14c4:	ee e3       	ldi	r30, 0x3E	; 62
    14c6:	89 37       	cpi	r24, 0x79	; 121
    14c8:	9e 07       	cpc	r25, r30
    14ca:	28 f4       	brcc	.+10     	; 0x14d6 <asin+0x16>
    14cc:	e8 e6       	ldi	r30, 0x68	; 104
    14ce:	f0 e0       	ldi	r31, 0x00	; 0
    14d0:	0e 94 de 0b 	call	0x17bc	; 0x17bc <__fp_powsodd>
    14d4:	0c c0       	rjmp	.+24     	; 0x14ee <asin+0x2e>
    14d6:	0e 94 6a 0b 	call	0x16d4	; 0x16d4 <__fp_arccos>
    14da:	90 58       	subi	r25, 0x80	; 128
    14dc:	a2 ea       	ldi	r26, 0xA2	; 162
    14de:	2a ed       	ldi	r18, 0xDA	; 218
    14e0:	3f e0       	ldi	r19, 0x0F	; 15
    14e2:	49 ec       	ldi	r20, 0xC9	; 201
    14e4:	5f e3       	ldi	r21, 0x3F	; 63
    14e6:	0e 94 0b 0a 	call	0x1416	; 0x1416 <__addsf3x>
    14ea:	0e 94 2b 0c 	call	0x1856	; 0x1856 <__fp_round>
    14ee:	0f 90       	pop	r0
    14f0:	07 fc       	sbrc	r0, 7
    14f2:	90 58       	subi	r25, 0x80	; 128
    14f4:	08 95       	ret

000014f6 <__cmpsf2>:
    14f6:	0e 94 8a 0b 	call	0x1714	; 0x1714 <__fp_cmp>
    14fa:	08 f4       	brcc	.+2      	; 0x14fe <__cmpsf2+0x8>
    14fc:	81 e0       	ldi	r24, 0x01	; 1
    14fe:	08 95       	ret

00001500 <cos>:
    1500:	0e 94 02 0c 	call	0x1804	; 0x1804 <__fp_rempio2>
    1504:	e3 95       	inc	r30
    1506:	0c 94 3c 0c 	jmp	0x1878	; 0x1878 <__fp_sinus>

0000150a <__divsf3>:
    150a:	0e 94 99 0a 	call	0x1532	; 0x1532 <__divsf3x>
    150e:	0c 94 2b 0c 	jmp	0x1856	; 0x1856 <__fp_round>
    1512:	0e 94 f9 0b 	call	0x17f2	; 0x17f2 <__fp_pscB>
    1516:	58 f0       	brcs	.+22     	; 0x152e <__divsf3+0x24>
    1518:	0e 94 f2 0b 	call	0x17e4	; 0x17e4 <__fp_pscA>
    151c:	40 f0       	brcs	.+16     	; 0x152e <__divsf3+0x24>
    151e:	29 f4       	brne	.+10     	; 0x152a <__divsf3+0x20>
    1520:	5f 3f       	cpi	r21, 0xFF	; 255
    1522:	29 f0       	breq	.+10     	; 0x152e <__divsf3+0x24>
    1524:	0c 94 ae 0b 	jmp	0x175c	; 0x175c <__fp_inf>
    1528:	51 11       	cpse	r21, r1
    152a:	0c 94 73 0c 	jmp	0x18e6	; 0x18e6 <__fp_szero>
    152e:	0c 94 b4 0b 	jmp	0x1768	; 0x1768 <__fp_nan>

00001532 <__divsf3x>:
    1532:	0e 94 50 0c 	call	0x18a0	; 0x18a0 <__fp_split3>
    1536:	68 f3       	brcs	.-38     	; 0x1512 <__divsf3+0x8>

00001538 <__divsf3_pse>:
    1538:	99 23       	and	r25, r25
    153a:	b1 f3       	breq	.-20     	; 0x1528 <__divsf3+0x1e>
    153c:	55 23       	and	r21, r21
    153e:	91 f3       	breq	.-28     	; 0x1524 <__divsf3+0x1a>
    1540:	95 1b       	sub	r25, r21
    1542:	55 0b       	sbc	r21, r21
    1544:	bb 27       	eor	r27, r27
    1546:	aa 27       	eor	r26, r26
    1548:	62 17       	cp	r22, r18
    154a:	73 07       	cpc	r23, r19
    154c:	84 07       	cpc	r24, r20
    154e:	38 f0       	brcs	.+14     	; 0x155e <__divsf3_pse+0x26>
    1550:	9f 5f       	subi	r25, 0xFF	; 255
    1552:	5f 4f       	sbci	r21, 0xFF	; 255
    1554:	22 0f       	add	r18, r18
    1556:	33 1f       	adc	r19, r19
    1558:	44 1f       	adc	r20, r20
    155a:	aa 1f       	adc	r26, r26
    155c:	a9 f3       	breq	.-22     	; 0x1548 <__divsf3_pse+0x10>
    155e:	35 d0       	rcall	.+106    	; 0x15ca <__divsf3_pse+0x92>
    1560:	0e 2e       	mov	r0, r30
    1562:	3a f0       	brmi	.+14     	; 0x1572 <__divsf3_pse+0x3a>
    1564:	e0 e8       	ldi	r30, 0x80	; 128
    1566:	32 d0       	rcall	.+100    	; 0x15cc <__divsf3_pse+0x94>
    1568:	91 50       	subi	r25, 0x01	; 1
    156a:	50 40       	sbci	r21, 0x00	; 0
    156c:	e6 95       	lsr	r30
    156e:	00 1c       	adc	r0, r0
    1570:	ca f7       	brpl	.-14     	; 0x1564 <__divsf3_pse+0x2c>
    1572:	2b d0       	rcall	.+86     	; 0x15ca <__divsf3_pse+0x92>
    1574:	fe 2f       	mov	r31, r30
    1576:	29 d0       	rcall	.+82     	; 0x15ca <__divsf3_pse+0x92>
    1578:	66 0f       	add	r22, r22
    157a:	77 1f       	adc	r23, r23
    157c:	88 1f       	adc	r24, r24
    157e:	bb 1f       	adc	r27, r27
    1580:	26 17       	cp	r18, r22
    1582:	37 07       	cpc	r19, r23
    1584:	48 07       	cpc	r20, r24
    1586:	ab 07       	cpc	r26, r27
    1588:	b0 e8       	ldi	r27, 0x80	; 128
    158a:	09 f0       	breq	.+2      	; 0x158e <__divsf3_pse+0x56>
    158c:	bb 0b       	sbc	r27, r27
    158e:	80 2d       	mov	r24, r0
    1590:	bf 01       	movw	r22, r30
    1592:	ff 27       	eor	r31, r31
    1594:	93 58       	subi	r25, 0x83	; 131
    1596:	5f 4f       	sbci	r21, 0xFF	; 255
    1598:	3a f0       	brmi	.+14     	; 0x15a8 <__divsf3_pse+0x70>
    159a:	9e 3f       	cpi	r25, 0xFE	; 254
    159c:	51 05       	cpc	r21, r1
    159e:	78 f0       	brcs	.+30     	; 0x15be <__divsf3_pse+0x86>
    15a0:	0c 94 ae 0b 	jmp	0x175c	; 0x175c <__fp_inf>
    15a4:	0c 94 73 0c 	jmp	0x18e6	; 0x18e6 <__fp_szero>
    15a8:	5f 3f       	cpi	r21, 0xFF	; 255
    15aa:	e4 f3       	brlt	.-8      	; 0x15a4 <__divsf3_pse+0x6c>
    15ac:	98 3e       	cpi	r25, 0xE8	; 232
    15ae:	d4 f3       	brlt	.-12     	; 0x15a4 <__divsf3_pse+0x6c>
    15b0:	86 95       	lsr	r24
    15b2:	77 95       	ror	r23
    15b4:	67 95       	ror	r22
    15b6:	b7 95       	ror	r27
    15b8:	f7 95       	ror	r31
    15ba:	9f 5f       	subi	r25, 0xFF	; 255
    15bc:	c9 f7       	brne	.-14     	; 0x15b0 <__divsf3_pse+0x78>
    15be:	88 0f       	add	r24, r24
    15c0:	91 1d       	adc	r25, r1
    15c2:	96 95       	lsr	r25
    15c4:	87 95       	ror	r24
    15c6:	97 f9       	bld	r25, 7
    15c8:	08 95       	ret
    15ca:	e1 e0       	ldi	r30, 0x01	; 1
    15cc:	66 0f       	add	r22, r22
    15ce:	77 1f       	adc	r23, r23
    15d0:	88 1f       	adc	r24, r24
    15d2:	bb 1f       	adc	r27, r27
    15d4:	62 17       	cp	r22, r18
    15d6:	73 07       	cpc	r23, r19
    15d8:	84 07       	cpc	r24, r20
    15da:	ba 07       	cpc	r27, r26
    15dc:	20 f0       	brcs	.+8      	; 0x15e6 <__divsf3_pse+0xae>
    15de:	62 1b       	sub	r22, r18
    15e0:	73 0b       	sbc	r23, r19
    15e2:	84 0b       	sbc	r24, r20
    15e4:	ba 0b       	sbc	r27, r26
    15e6:	ee 1f       	adc	r30, r30
    15e8:	88 f7       	brcc	.-30     	; 0x15cc <__divsf3_pse+0x94>
    15ea:	e0 95       	com	r30
    15ec:	08 95       	ret

000015ee <__fixsfsi>:
    15ee:	0e 94 fe 0a 	call	0x15fc	; 0x15fc <__fixunssfsi>
    15f2:	68 94       	set
    15f4:	b1 11       	cpse	r27, r1
    15f6:	0c 94 73 0c 	jmp	0x18e6	; 0x18e6 <__fp_szero>
    15fa:	08 95       	ret

000015fc <__fixunssfsi>:
    15fc:	0e 94 58 0c 	call	0x18b0	; 0x18b0 <__fp_splitA>
    1600:	88 f0       	brcs	.+34     	; 0x1624 <__fixunssfsi+0x28>
    1602:	9f 57       	subi	r25, 0x7F	; 127
    1604:	98 f0       	brcs	.+38     	; 0x162c <__fixunssfsi+0x30>
    1606:	b9 2f       	mov	r27, r25
    1608:	99 27       	eor	r25, r25
    160a:	b7 51       	subi	r27, 0x17	; 23
    160c:	b0 f0       	brcs	.+44     	; 0x163a <__fixunssfsi+0x3e>
    160e:	e1 f0       	breq	.+56     	; 0x1648 <__fixunssfsi+0x4c>
    1610:	66 0f       	add	r22, r22
    1612:	77 1f       	adc	r23, r23
    1614:	88 1f       	adc	r24, r24
    1616:	99 1f       	adc	r25, r25
    1618:	1a f0       	brmi	.+6      	; 0x1620 <__fixunssfsi+0x24>
    161a:	ba 95       	dec	r27
    161c:	c9 f7       	brne	.-14     	; 0x1610 <__fixunssfsi+0x14>
    161e:	14 c0       	rjmp	.+40     	; 0x1648 <__fixunssfsi+0x4c>
    1620:	b1 30       	cpi	r27, 0x01	; 1
    1622:	91 f0       	breq	.+36     	; 0x1648 <__fixunssfsi+0x4c>
    1624:	0e 94 72 0c 	call	0x18e4	; 0x18e4 <__fp_zero>
    1628:	b1 e0       	ldi	r27, 0x01	; 1
    162a:	08 95       	ret
    162c:	0c 94 72 0c 	jmp	0x18e4	; 0x18e4 <__fp_zero>
    1630:	67 2f       	mov	r22, r23
    1632:	78 2f       	mov	r23, r24
    1634:	88 27       	eor	r24, r24
    1636:	b8 5f       	subi	r27, 0xF8	; 248
    1638:	39 f0       	breq	.+14     	; 0x1648 <__fixunssfsi+0x4c>
    163a:	b9 3f       	cpi	r27, 0xF9	; 249
    163c:	cc f3       	brlt	.-14     	; 0x1630 <__fixunssfsi+0x34>
    163e:	86 95       	lsr	r24
    1640:	77 95       	ror	r23
    1642:	67 95       	ror	r22
    1644:	b3 95       	inc	r27
    1646:	d9 f7       	brne	.-10     	; 0x163e <__fixunssfsi+0x42>
    1648:	3e f4       	brtc	.+14     	; 0x1658 <__fixunssfsi+0x5c>
    164a:	90 95       	com	r25
    164c:	80 95       	com	r24
    164e:	70 95       	com	r23
    1650:	61 95       	neg	r22
    1652:	7f 4f       	sbci	r23, 0xFF	; 255
    1654:	8f 4f       	sbci	r24, 0xFF	; 255
    1656:	9f 4f       	sbci	r25, 0xFF	; 255
    1658:	08 95       	ret

0000165a <__floatunsisf>:
    165a:	e8 94       	clt
    165c:	09 c0       	rjmp	.+18     	; 0x1670 <__floatsisf+0x12>

0000165e <__floatsisf>:
    165e:	97 fb       	bst	r25, 7
    1660:	3e f4       	brtc	.+14     	; 0x1670 <__floatsisf+0x12>
    1662:	90 95       	com	r25
    1664:	80 95       	com	r24
    1666:	70 95       	com	r23
    1668:	61 95       	neg	r22
    166a:	7f 4f       	sbci	r23, 0xFF	; 255
    166c:	8f 4f       	sbci	r24, 0xFF	; 255
    166e:	9f 4f       	sbci	r25, 0xFF	; 255
    1670:	99 23       	and	r25, r25
    1672:	a9 f0       	breq	.+42     	; 0x169e <__floatsisf+0x40>
    1674:	f9 2f       	mov	r31, r25
    1676:	96 e9       	ldi	r25, 0x96	; 150
    1678:	bb 27       	eor	r27, r27
    167a:	93 95       	inc	r25
    167c:	f6 95       	lsr	r31
    167e:	87 95       	ror	r24
    1680:	77 95       	ror	r23
    1682:	67 95       	ror	r22
    1684:	b7 95       	ror	r27
    1686:	f1 11       	cpse	r31, r1
    1688:	f8 cf       	rjmp	.-16     	; 0x167a <__floatsisf+0x1c>
    168a:	fa f4       	brpl	.+62     	; 0x16ca <__floatsisf+0x6c>
    168c:	bb 0f       	add	r27, r27
    168e:	11 f4       	brne	.+4      	; 0x1694 <__floatsisf+0x36>
    1690:	60 ff       	sbrs	r22, 0
    1692:	1b c0       	rjmp	.+54     	; 0x16ca <__floatsisf+0x6c>
    1694:	6f 5f       	subi	r22, 0xFF	; 255
    1696:	7f 4f       	sbci	r23, 0xFF	; 255
    1698:	8f 4f       	sbci	r24, 0xFF	; 255
    169a:	9f 4f       	sbci	r25, 0xFF	; 255
    169c:	16 c0       	rjmp	.+44     	; 0x16ca <__floatsisf+0x6c>
    169e:	88 23       	and	r24, r24
    16a0:	11 f0       	breq	.+4      	; 0x16a6 <__floatsisf+0x48>
    16a2:	96 e9       	ldi	r25, 0x96	; 150
    16a4:	11 c0       	rjmp	.+34     	; 0x16c8 <__floatsisf+0x6a>
    16a6:	77 23       	and	r23, r23
    16a8:	21 f0       	breq	.+8      	; 0x16b2 <__floatsisf+0x54>
    16aa:	9e e8       	ldi	r25, 0x8E	; 142
    16ac:	87 2f       	mov	r24, r23
    16ae:	76 2f       	mov	r23, r22
    16b0:	05 c0       	rjmp	.+10     	; 0x16bc <__floatsisf+0x5e>
    16b2:	66 23       	and	r22, r22
    16b4:	71 f0       	breq	.+28     	; 0x16d2 <__floatsisf+0x74>
    16b6:	96 e8       	ldi	r25, 0x86	; 134
    16b8:	86 2f       	mov	r24, r22
    16ba:	70 e0       	ldi	r23, 0x00	; 0
    16bc:	60 e0       	ldi	r22, 0x00	; 0
    16be:	2a f0       	brmi	.+10     	; 0x16ca <__floatsisf+0x6c>
    16c0:	9a 95       	dec	r25
    16c2:	66 0f       	add	r22, r22
    16c4:	77 1f       	adc	r23, r23
    16c6:	88 1f       	adc	r24, r24
    16c8:	da f7       	brpl	.-10     	; 0x16c0 <__floatsisf+0x62>
    16ca:	88 0f       	add	r24, r24
    16cc:	96 95       	lsr	r25
    16ce:	87 95       	ror	r24
    16d0:	97 f9       	bld	r25, 7
    16d2:	08 95       	ret

000016d4 <__fp_arccos>:
    16d4:	df 93       	push	r29
    16d6:	cf 93       	push	r28
    16d8:	1f 93       	push	r17
    16da:	0f 93       	push	r16
    16dc:	8b 01       	movw	r16, r22
    16de:	ec 01       	movw	r28, r24
    16e0:	ec e7       	ldi	r30, 0x7C	; 124
    16e2:	f0 e0       	ldi	r31, 0x00	; 0
    16e4:	0e 94 b7 0b 	call	0x176e	; 0x176e <__fp_powser>
    16e8:	0e 94 2b 0c 	call	0x1856	; 0x1856 <__fp_round>
    16ec:	98 01       	movw	r18, r16
    16ee:	ae 01       	movw	r20, r28
    16f0:	8b 01       	movw	r16, r22
    16f2:	ec 01       	movw	r28, r24
    16f4:	60 e0       	ldi	r22, 0x00	; 0
    16f6:	70 e0       	ldi	r23, 0x00	; 0
    16f8:	80 e8       	ldi	r24, 0x80	; 128
    16fa:	9f e3       	ldi	r25, 0x3F	; 63
    16fc:	0e 94 f3 09 	call	0x13e6	; 0x13e6 <__subsf3>
    1700:	0e 94 f1 0c 	call	0x19e2	; 0x19e2 <sqrt>
    1704:	98 01       	movw	r18, r16
    1706:	ae 01       	movw	r20, r28
    1708:	0f 91       	pop	r16
    170a:	1f 91       	pop	r17
    170c:	cf 91       	pop	r28
    170e:	df 91       	pop	r29
    1710:	0c 94 91 0c 	jmp	0x1922	; 0x1922 <__mulsf3x>

00001714 <__fp_cmp>:
    1714:	99 0f       	add	r25, r25
    1716:	00 08       	sbc	r0, r0
    1718:	55 0f       	add	r21, r21
    171a:	aa 0b       	sbc	r26, r26
    171c:	e0 e8       	ldi	r30, 0x80	; 128
    171e:	fe ef       	ldi	r31, 0xFE	; 254
    1720:	16 16       	cp	r1, r22
    1722:	17 06       	cpc	r1, r23
    1724:	e8 07       	cpc	r30, r24
    1726:	f9 07       	cpc	r31, r25
    1728:	c0 f0       	brcs	.+48     	; 0x175a <__fp_cmp+0x46>
    172a:	12 16       	cp	r1, r18
    172c:	13 06       	cpc	r1, r19
    172e:	e4 07       	cpc	r30, r20
    1730:	f5 07       	cpc	r31, r21
    1732:	98 f0       	brcs	.+38     	; 0x175a <__fp_cmp+0x46>
    1734:	62 1b       	sub	r22, r18
    1736:	73 0b       	sbc	r23, r19
    1738:	84 0b       	sbc	r24, r20
    173a:	95 0b       	sbc	r25, r21
    173c:	39 f4       	brne	.+14     	; 0x174c <__fp_cmp+0x38>
    173e:	0a 26       	eor	r0, r26
    1740:	61 f0       	breq	.+24     	; 0x175a <__fp_cmp+0x46>
    1742:	23 2b       	or	r18, r19
    1744:	24 2b       	or	r18, r20
    1746:	25 2b       	or	r18, r21
    1748:	21 f4       	brne	.+8      	; 0x1752 <__fp_cmp+0x3e>
    174a:	08 95       	ret
    174c:	0a 26       	eor	r0, r26
    174e:	09 f4       	brne	.+2      	; 0x1752 <__fp_cmp+0x3e>
    1750:	a1 40       	sbci	r26, 0x01	; 1
    1752:	a6 95       	lsr	r26
    1754:	8f ef       	ldi	r24, 0xFF	; 255
    1756:	81 1d       	adc	r24, r1
    1758:	81 1d       	adc	r24, r1
    175a:	08 95       	ret

0000175c <__fp_inf>:
    175c:	97 f9       	bld	r25, 7
    175e:	9f 67       	ori	r25, 0x7F	; 127
    1760:	80 e8       	ldi	r24, 0x80	; 128
    1762:	70 e0       	ldi	r23, 0x00	; 0
    1764:	60 e0       	ldi	r22, 0x00	; 0
    1766:	08 95       	ret

00001768 <__fp_nan>:
    1768:	9f ef       	ldi	r25, 0xFF	; 255
    176a:	80 ec       	ldi	r24, 0xC0	; 192
    176c:	08 95       	ret

0000176e <__fp_powser>:
    176e:	df 93       	push	r29
    1770:	cf 93       	push	r28
    1772:	1f 93       	push	r17
    1774:	0f 93       	push	r16
    1776:	ff 92       	push	r15
    1778:	ef 92       	push	r14
    177a:	df 92       	push	r13
    177c:	7b 01       	movw	r14, r22
    177e:	8c 01       	movw	r16, r24
    1780:	68 94       	set
    1782:	06 c0       	rjmp	.+12     	; 0x1790 <__fp_powser+0x22>
    1784:	da 2e       	mov	r13, r26
    1786:	ef 01       	movw	r28, r30
    1788:	0e 94 91 0c 	call	0x1922	; 0x1922 <__mulsf3x>
    178c:	fe 01       	movw	r30, r28
    178e:	e8 94       	clt
    1790:	a5 91       	lpm	r26, Z+
    1792:	25 91       	lpm	r18, Z+
    1794:	35 91       	lpm	r19, Z+
    1796:	45 91       	lpm	r20, Z+
    1798:	55 91       	lpm	r21, Z+
    179a:	a6 f3       	brts	.-24     	; 0x1784 <__fp_powser+0x16>
    179c:	ef 01       	movw	r28, r30
    179e:	0e 94 0b 0a 	call	0x1416	; 0x1416 <__addsf3x>
    17a2:	fe 01       	movw	r30, r28
    17a4:	97 01       	movw	r18, r14
    17a6:	a8 01       	movw	r20, r16
    17a8:	da 94       	dec	r13
    17aa:	69 f7       	brne	.-38     	; 0x1786 <__fp_powser+0x18>
    17ac:	df 90       	pop	r13
    17ae:	ef 90       	pop	r14
    17b0:	ff 90       	pop	r15
    17b2:	0f 91       	pop	r16
    17b4:	1f 91       	pop	r17
    17b6:	cf 91       	pop	r28
    17b8:	df 91       	pop	r29
    17ba:	08 95       	ret

000017bc <__fp_powsodd>:
    17bc:	9f 93       	push	r25
    17be:	8f 93       	push	r24
    17c0:	7f 93       	push	r23
    17c2:	6f 93       	push	r22
    17c4:	ff 93       	push	r31
    17c6:	ef 93       	push	r30
    17c8:	9b 01       	movw	r18, r22
    17ca:	ac 01       	movw	r20, r24
    17cc:	0e 94 7e 0c 	call	0x18fc	; 0x18fc <__mulsf3>
    17d0:	ef 91       	pop	r30
    17d2:	ff 91       	pop	r31
    17d4:	0e 94 b7 0b 	call	0x176e	; 0x176e <__fp_powser>
    17d8:	2f 91       	pop	r18
    17da:	3f 91       	pop	r19
    17dc:	4f 91       	pop	r20
    17de:	5f 91       	pop	r21
    17e0:	0c 94 7e 0c 	jmp	0x18fc	; 0x18fc <__mulsf3>

000017e4 <__fp_pscA>:
    17e4:	00 24       	eor	r0, r0
    17e6:	0a 94       	dec	r0
    17e8:	16 16       	cp	r1, r22
    17ea:	17 06       	cpc	r1, r23
    17ec:	18 06       	cpc	r1, r24
    17ee:	09 06       	cpc	r0, r25
    17f0:	08 95       	ret

000017f2 <__fp_pscB>:
    17f2:	00 24       	eor	r0, r0
    17f4:	0a 94       	dec	r0
    17f6:	12 16       	cp	r1, r18
    17f8:	13 06       	cpc	r1, r19
    17fa:	14 06       	cpc	r1, r20
    17fc:	05 06       	cpc	r0, r21
    17fe:	08 95       	ret
    1800:	0c 94 b4 0b 	jmp	0x1768	; 0x1768 <__fp_nan>

00001804 <__fp_rempio2>:
    1804:	0e 94 58 0c 	call	0x18b0	; 0x18b0 <__fp_splitA>
    1808:	d8 f3       	brcs	.-10     	; 0x1800 <__fp_pscB+0xe>
    180a:	e8 94       	clt
    180c:	e0 e0       	ldi	r30, 0x00	; 0
    180e:	bb 27       	eor	r27, r27
    1810:	9f 57       	subi	r25, 0x7F	; 127
    1812:	f0 f0       	brcs	.+60     	; 0x1850 <__fp_rempio2+0x4c>
    1814:	2a ed       	ldi	r18, 0xDA	; 218
    1816:	3f e0       	ldi	r19, 0x0F	; 15
    1818:	49 ec       	ldi	r20, 0xC9	; 201
    181a:	06 c0       	rjmp	.+12     	; 0x1828 <__fp_rempio2+0x24>
    181c:	ee 0f       	add	r30, r30
    181e:	bb 0f       	add	r27, r27
    1820:	66 1f       	adc	r22, r22
    1822:	77 1f       	adc	r23, r23
    1824:	88 1f       	adc	r24, r24
    1826:	28 f0       	brcs	.+10     	; 0x1832 <__fp_rempio2+0x2e>
    1828:	b2 3a       	cpi	r27, 0xA2	; 162
    182a:	62 07       	cpc	r22, r18
    182c:	73 07       	cpc	r23, r19
    182e:	84 07       	cpc	r24, r20
    1830:	28 f0       	brcs	.+10     	; 0x183c <__fp_rempio2+0x38>
    1832:	b2 5a       	subi	r27, 0xA2	; 162
    1834:	62 0b       	sbc	r22, r18
    1836:	73 0b       	sbc	r23, r19
    1838:	84 0b       	sbc	r24, r20
    183a:	e3 95       	inc	r30
    183c:	9a 95       	dec	r25
    183e:	72 f7       	brpl	.-36     	; 0x181c <__fp_rempio2+0x18>
    1840:	80 38       	cpi	r24, 0x80	; 128
    1842:	30 f4       	brcc	.+12     	; 0x1850 <__fp_rempio2+0x4c>
    1844:	9a 95       	dec	r25
    1846:	bb 0f       	add	r27, r27
    1848:	66 1f       	adc	r22, r22
    184a:	77 1f       	adc	r23, r23
    184c:	88 1f       	adc	r24, r24
    184e:	d2 f7       	brpl	.-12     	; 0x1844 <__fp_rempio2+0x40>
    1850:	90 48       	sbci	r25, 0x80	; 128
    1852:	0c 94 33 0d 	jmp	0x1a66	; 0x1a66 <__fp_mpack_finite>

00001856 <__fp_round>:
    1856:	09 2e       	mov	r0, r25
    1858:	03 94       	inc	r0
    185a:	00 0c       	add	r0, r0
    185c:	11 f4       	brne	.+4      	; 0x1862 <__fp_round+0xc>
    185e:	88 23       	and	r24, r24
    1860:	52 f0       	brmi	.+20     	; 0x1876 <__fp_round+0x20>
    1862:	bb 0f       	add	r27, r27
    1864:	40 f4       	brcc	.+16     	; 0x1876 <__fp_round+0x20>
    1866:	bf 2b       	or	r27, r31
    1868:	11 f4       	brne	.+4      	; 0x186e <__fp_round+0x18>
    186a:	60 ff       	sbrs	r22, 0
    186c:	04 c0       	rjmp	.+8      	; 0x1876 <__fp_round+0x20>
    186e:	6f 5f       	subi	r22, 0xFF	; 255
    1870:	7f 4f       	sbci	r23, 0xFF	; 255
    1872:	8f 4f       	sbci	r24, 0xFF	; 255
    1874:	9f 4f       	sbci	r25, 0xFF	; 255
    1876:	08 95       	ret

00001878 <__fp_sinus>:
    1878:	ef 93       	push	r30
    187a:	e0 ff       	sbrs	r30, 0
    187c:	07 c0       	rjmp	.+14     	; 0x188c <__fp_sinus+0x14>
    187e:	a2 ea       	ldi	r26, 0xA2	; 162
    1880:	2a ed       	ldi	r18, 0xDA	; 218
    1882:	3f e0       	ldi	r19, 0x0F	; 15
    1884:	49 ec       	ldi	r20, 0xC9	; 201
    1886:	5f eb       	ldi	r21, 0xBF	; 191
    1888:	0e 94 0b 0a 	call	0x1416	; 0x1416 <__addsf3x>
    188c:	0e 94 2b 0c 	call	0x1856	; 0x1856 <__fp_round>
    1890:	0f 90       	pop	r0
    1892:	03 94       	inc	r0
    1894:	01 fc       	sbrc	r0, 1
    1896:	90 58       	subi	r25, 0x80	; 128
    1898:	e4 ea       	ldi	r30, 0xA4	; 164
    189a:	f0 e0       	ldi	r31, 0x00	; 0
    189c:	0c 94 de 0b 	jmp	0x17bc	; 0x17bc <__fp_powsodd>

000018a0 <__fp_split3>:
    18a0:	57 fd       	sbrc	r21, 7
    18a2:	90 58       	subi	r25, 0x80	; 128
    18a4:	44 0f       	add	r20, r20
    18a6:	55 1f       	adc	r21, r21
    18a8:	59 f0       	breq	.+22     	; 0x18c0 <__fp_splitA+0x10>
    18aa:	5f 3f       	cpi	r21, 0xFF	; 255
    18ac:	71 f0       	breq	.+28     	; 0x18ca <__fp_splitA+0x1a>
    18ae:	47 95       	ror	r20

000018b0 <__fp_splitA>:
    18b0:	88 0f       	add	r24, r24
    18b2:	97 fb       	bst	r25, 7
    18b4:	99 1f       	adc	r25, r25
    18b6:	61 f0       	breq	.+24     	; 0x18d0 <__fp_splitA+0x20>
    18b8:	9f 3f       	cpi	r25, 0xFF	; 255
    18ba:	79 f0       	breq	.+30     	; 0x18da <__fp_splitA+0x2a>
    18bc:	87 95       	ror	r24
    18be:	08 95       	ret
    18c0:	12 16       	cp	r1, r18
    18c2:	13 06       	cpc	r1, r19
    18c4:	14 06       	cpc	r1, r20
    18c6:	55 1f       	adc	r21, r21
    18c8:	f2 cf       	rjmp	.-28     	; 0x18ae <__fp_split3+0xe>
    18ca:	46 95       	lsr	r20
    18cc:	f1 df       	rcall	.-30     	; 0x18b0 <__fp_splitA>
    18ce:	08 c0       	rjmp	.+16     	; 0x18e0 <__fp_splitA+0x30>
    18d0:	16 16       	cp	r1, r22
    18d2:	17 06       	cpc	r1, r23
    18d4:	18 06       	cpc	r1, r24
    18d6:	99 1f       	adc	r25, r25
    18d8:	f1 cf       	rjmp	.-30     	; 0x18bc <__fp_splitA+0xc>
    18da:	86 95       	lsr	r24
    18dc:	71 05       	cpc	r23, r1
    18de:	61 05       	cpc	r22, r1
    18e0:	08 94       	sec
    18e2:	08 95       	ret

000018e4 <__fp_zero>:
    18e4:	e8 94       	clt

000018e6 <__fp_szero>:
    18e6:	bb 27       	eor	r27, r27
    18e8:	66 27       	eor	r22, r22
    18ea:	77 27       	eor	r23, r23
    18ec:	cb 01       	movw	r24, r22
    18ee:	97 f9       	bld	r25, 7
    18f0:	08 95       	ret

000018f2 <__gesf2>:
    18f2:	0e 94 8a 0b 	call	0x1714	; 0x1714 <__fp_cmp>
    18f6:	08 f4       	brcc	.+2      	; 0x18fa <__gesf2+0x8>
    18f8:	8f ef       	ldi	r24, 0xFF	; 255
    18fa:	08 95       	ret

000018fc <__mulsf3>:
    18fc:	0e 94 91 0c 	call	0x1922	; 0x1922 <__mulsf3x>
    1900:	0c 94 2b 0c 	jmp	0x1856	; 0x1856 <__fp_round>
    1904:	0e 94 f2 0b 	call	0x17e4	; 0x17e4 <__fp_pscA>
    1908:	38 f0       	brcs	.+14     	; 0x1918 <__mulsf3+0x1c>
    190a:	0e 94 f9 0b 	call	0x17f2	; 0x17f2 <__fp_pscB>
    190e:	20 f0       	brcs	.+8      	; 0x1918 <__mulsf3+0x1c>
    1910:	95 23       	and	r25, r21
    1912:	11 f0       	breq	.+4      	; 0x1918 <__mulsf3+0x1c>
    1914:	0c 94 ae 0b 	jmp	0x175c	; 0x175c <__fp_inf>
    1918:	0c 94 b4 0b 	jmp	0x1768	; 0x1768 <__fp_nan>
    191c:	11 24       	eor	r1, r1
    191e:	0c 94 73 0c 	jmp	0x18e6	; 0x18e6 <__fp_szero>

00001922 <__mulsf3x>:
    1922:	0e 94 50 0c 	call	0x18a0	; 0x18a0 <__fp_split3>
    1926:	70 f3       	brcs	.-36     	; 0x1904 <__mulsf3+0x8>

00001928 <__mulsf3_pse>:
    1928:	95 9f       	mul	r25, r21
    192a:	c1 f3       	breq	.-16     	; 0x191c <__mulsf3+0x20>
    192c:	95 0f       	add	r25, r21
    192e:	50 e0       	ldi	r21, 0x00	; 0
    1930:	55 1f       	adc	r21, r21
    1932:	62 9f       	mul	r22, r18
    1934:	f0 01       	movw	r30, r0
    1936:	72 9f       	mul	r23, r18
    1938:	bb 27       	eor	r27, r27
    193a:	f0 0d       	add	r31, r0
    193c:	b1 1d       	adc	r27, r1
    193e:	63 9f       	mul	r22, r19
    1940:	aa 27       	eor	r26, r26
    1942:	f0 0d       	add	r31, r0
    1944:	b1 1d       	adc	r27, r1
    1946:	aa 1f       	adc	r26, r26
    1948:	64 9f       	mul	r22, r20
    194a:	66 27       	eor	r22, r22
    194c:	b0 0d       	add	r27, r0
    194e:	a1 1d       	adc	r26, r1
    1950:	66 1f       	adc	r22, r22
    1952:	82 9f       	mul	r24, r18
    1954:	22 27       	eor	r18, r18
    1956:	b0 0d       	add	r27, r0
    1958:	a1 1d       	adc	r26, r1
    195a:	62 1f       	adc	r22, r18
    195c:	73 9f       	mul	r23, r19
    195e:	b0 0d       	add	r27, r0
    1960:	a1 1d       	adc	r26, r1
    1962:	62 1f       	adc	r22, r18
    1964:	83 9f       	mul	r24, r19
    1966:	a0 0d       	add	r26, r0
    1968:	61 1d       	adc	r22, r1
    196a:	22 1f       	adc	r18, r18
    196c:	74 9f       	mul	r23, r20
    196e:	33 27       	eor	r19, r19
    1970:	a0 0d       	add	r26, r0
    1972:	61 1d       	adc	r22, r1
    1974:	23 1f       	adc	r18, r19
    1976:	84 9f       	mul	r24, r20
    1978:	60 0d       	add	r22, r0
    197a:	21 1d       	adc	r18, r1
    197c:	82 2f       	mov	r24, r18
    197e:	76 2f       	mov	r23, r22
    1980:	6a 2f       	mov	r22, r26
    1982:	11 24       	eor	r1, r1
    1984:	9f 57       	subi	r25, 0x7F	; 127
    1986:	50 40       	sbci	r21, 0x00	; 0
    1988:	9a f0       	brmi	.+38     	; 0x19b0 <__mulsf3_pse+0x88>
    198a:	f1 f0       	breq	.+60     	; 0x19c8 <__mulsf3_pse+0xa0>
    198c:	88 23       	and	r24, r24
    198e:	4a f0       	brmi	.+18     	; 0x19a2 <__mulsf3_pse+0x7a>
    1990:	ee 0f       	add	r30, r30
    1992:	ff 1f       	adc	r31, r31
    1994:	bb 1f       	adc	r27, r27
    1996:	66 1f       	adc	r22, r22
    1998:	77 1f       	adc	r23, r23
    199a:	88 1f       	adc	r24, r24
    199c:	91 50       	subi	r25, 0x01	; 1
    199e:	50 40       	sbci	r21, 0x00	; 0
    19a0:	a9 f7       	brne	.-22     	; 0x198c <__mulsf3_pse+0x64>
    19a2:	9e 3f       	cpi	r25, 0xFE	; 254
    19a4:	51 05       	cpc	r21, r1
    19a6:	80 f0       	brcs	.+32     	; 0x19c8 <__mulsf3_pse+0xa0>
    19a8:	0c 94 ae 0b 	jmp	0x175c	; 0x175c <__fp_inf>
    19ac:	0c 94 73 0c 	jmp	0x18e6	; 0x18e6 <__fp_szero>
    19b0:	5f 3f       	cpi	r21, 0xFF	; 255
    19b2:	e4 f3       	brlt	.-8      	; 0x19ac <__mulsf3_pse+0x84>
    19b4:	98 3e       	cpi	r25, 0xE8	; 232
    19b6:	d4 f3       	brlt	.-12     	; 0x19ac <__mulsf3_pse+0x84>
    19b8:	86 95       	lsr	r24
    19ba:	77 95       	ror	r23
    19bc:	67 95       	ror	r22
    19be:	b7 95       	ror	r27
    19c0:	f7 95       	ror	r31
    19c2:	e7 95       	ror	r30
    19c4:	9f 5f       	subi	r25, 0xFF	; 255
    19c6:	c1 f7       	brne	.-16     	; 0x19b8 <__mulsf3_pse+0x90>
    19c8:	fe 2b       	or	r31, r30
    19ca:	88 0f       	add	r24, r24
    19cc:	91 1d       	adc	r25, r1
    19ce:	96 95       	lsr	r25
    19d0:	87 95       	ror	r24
    19d2:	97 f9       	bld	r25, 7
    19d4:	08 95       	ret
    19d6:	19 f4       	brne	.+6      	; 0x19de <__mulsf3_pse+0xb6>
    19d8:	16 f4       	brtc	.+4      	; 0x19de <__mulsf3_pse+0xb6>
    19da:	0c 94 b4 0b 	jmp	0x1768	; 0x1768 <__fp_nan>
    19de:	0c 94 31 0d 	jmp	0x1a62	; 0x1a62 <__fp_mpack>

000019e2 <sqrt>:
    19e2:	0e 94 58 0c 	call	0x18b0	; 0x18b0 <__fp_splitA>
    19e6:	b8 f3       	brcs	.-18     	; 0x19d6 <__mulsf3_pse+0xae>
    19e8:	99 23       	and	r25, r25
    19ea:	c9 f3       	breq	.-14     	; 0x19de <__mulsf3_pse+0xb6>
    19ec:	b6 f3       	brts	.-20     	; 0x19da <__mulsf3_pse+0xb2>
    19ee:	9f 57       	subi	r25, 0x7F	; 127
    19f0:	55 0b       	sbc	r21, r21
    19f2:	87 ff       	sbrs	r24, 7
    19f4:	0e 94 3f 0d 	call	0x1a7e	; 0x1a7e <__fp_norm2>
    19f8:	00 24       	eor	r0, r0
    19fa:	a0 e6       	ldi	r26, 0x60	; 96
    19fc:	40 ea       	ldi	r20, 0xA0	; 160
    19fe:	90 01       	movw	r18, r0
    1a00:	80 58       	subi	r24, 0x80	; 128
    1a02:	56 95       	lsr	r21
    1a04:	97 95       	ror	r25
    1a06:	28 f4       	brcc	.+10     	; 0x1a12 <sqrt+0x30>
    1a08:	80 5c       	subi	r24, 0xC0	; 192
    1a0a:	66 0f       	add	r22, r22
    1a0c:	77 1f       	adc	r23, r23
    1a0e:	88 1f       	adc	r24, r24
    1a10:	20 f0       	brcs	.+8      	; 0x1a1a <sqrt+0x38>
    1a12:	26 17       	cp	r18, r22
    1a14:	37 07       	cpc	r19, r23
    1a16:	48 07       	cpc	r20, r24
    1a18:	30 f4       	brcc	.+12     	; 0x1a26 <sqrt+0x44>
    1a1a:	62 1b       	sub	r22, r18
    1a1c:	73 0b       	sbc	r23, r19
    1a1e:	84 0b       	sbc	r24, r20
    1a20:	20 29       	or	r18, r0
    1a22:	31 29       	or	r19, r1
    1a24:	4a 2b       	or	r20, r26
    1a26:	a6 95       	lsr	r26
    1a28:	17 94       	ror	r1
    1a2a:	07 94       	ror	r0
    1a2c:	20 25       	eor	r18, r0
    1a2e:	31 25       	eor	r19, r1
    1a30:	4a 27       	eor	r20, r26
    1a32:	58 f7       	brcc	.-42     	; 0x1a0a <sqrt+0x28>
    1a34:	66 0f       	add	r22, r22
    1a36:	77 1f       	adc	r23, r23
    1a38:	88 1f       	adc	r24, r24
    1a3a:	20 f0       	brcs	.+8      	; 0x1a44 <sqrt+0x62>
    1a3c:	26 17       	cp	r18, r22
    1a3e:	37 07       	cpc	r19, r23
    1a40:	48 07       	cpc	r20, r24
    1a42:	30 f4       	brcc	.+12     	; 0x1a50 <sqrt+0x6e>
    1a44:	62 0b       	sbc	r22, r18
    1a46:	73 0b       	sbc	r23, r19
    1a48:	84 0b       	sbc	r24, r20
    1a4a:	20 0d       	add	r18, r0
    1a4c:	31 1d       	adc	r19, r1
    1a4e:	41 1d       	adc	r20, r1
    1a50:	a0 95       	com	r26
    1a52:	81 f7       	brne	.-32     	; 0x1a34 <sqrt+0x52>
    1a54:	b9 01       	movw	r22, r18
    1a56:	84 2f       	mov	r24, r20
    1a58:	91 58       	subi	r25, 0x81	; 129
    1a5a:	88 0f       	add	r24, r24
    1a5c:	96 95       	lsr	r25
    1a5e:	87 95       	ror	r24
    1a60:	08 95       	ret

00001a62 <__fp_mpack>:
    1a62:	9f 3f       	cpi	r25, 0xFF	; 255
    1a64:	31 f0       	breq	.+12     	; 0x1a72 <__fp_mpack_finite+0xc>

00001a66 <__fp_mpack_finite>:
    1a66:	91 50       	subi	r25, 0x01	; 1
    1a68:	20 f4       	brcc	.+8      	; 0x1a72 <__fp_mpack_finite+0xc>
    1a6a:	87 95       	ror	r24
    1a6c:	77 95       	ror	r23
    1a6e:	67 95       	ror	r22
    1a70:	b7 95       	ror	r27
    1a72:	88 0f       	add	r24, r24
    1a74:	91 1d       	adc	r25, r1
    1a76:	96 95       	lsr	r25
    1a78:	87 95       	ror	r24
    1a7a:	97 f9       	bld	r25, 7
    1a7c:	08 95       	ret

00001a7e <__fp_norm2>:
    1a7e:	91 50       	subi	r25, 0x01	; 1
    1a80:	50 40       	sbci	r21, 0x00	; 0
    1a82:	66 0f       	add	r22, r22
    1a84:	77 1f       	adc	r23, r23
    1a86:	88 1f       	adc	r24, r24
    1a88:	d2 f7       	brpl	.-12     	; 0x1a7e <__fp_norm2>
    1a8a:	08 95       	ret

00001a8c <__udivmodsi4>:
    1a8c:	a1 e2       	ldi	r26, 0x21	; 33
    1a8e:	1a 2e       	mov	r1, r26
    1a90:	aa 1b       	sub	r26, r26
    1a92:	bb 1b       	sub	r27, r27
    1a94:	fd 01       	movw	r30, r26
    1a96:	0d c0       	rjmp	.+26     	; 0x1ab2 <__udivmodsi4_ep>

00001a98 <__udivmodsi4_loop>:
    1a98:	aa 1f       	adc	r26, r26
    1a9a:	bb 1f       	adc	r27, r27
    1a9c:	ee 1f       	adc	r30, r30
    1a9e:	ff 1f       	adc	r31, r31
    1aa0:	a2 17       	cp	r26, r18
    1aa2:	b3 07       	cpc	r27, r19
    1aa4:	e4 07       	cpc	r30, r20
    1aa6:	f5 07       	cpc	r31, r21
    1aa8:	20 f0       	brcs	.+8      	; 0x1ab2 <__udivmodsi4_ep>
    1aaa:	a2 1b       	sub	r26, r18
    1aac:	b3 0b       	sbc	r27, r19
    1aae:	e4 0b       	sbc	r30, r20
    1ab0:	f5 0b       	sbc	r31, r21

00001ab2 <__udivmodsi4_ep>:
    1ab2:	66 1f       	adc	r22, r22
    1ab4:	77 1f       	adc	r23, r23
    1ab6:	88 1f       	adc	r24, r24
    1ab8:	99 1f       	adc	r25, r25
    1aba:	1a 94       	dec	r1
    1abc:	69 f7       	brne	.-38     	; 0x1a98 <__udivmodsi4_loop>
    1abe:	60 95       	com	r22
    1ac0:	70 95       	com	r23
    1ac2:	80 95       	com	r24
    1ac4:	90 95       	com	r25
    1ac6:	9b 01       	movw	r18, r22
    1ac8:	ac 01       	movw	r20, r24
    1aca:	bd 01       	movw	r22, r26
    1acc:	cf 01       	movw	r24, r30
    1ace:	08 95       	ret

00001ad0 <__tablejump2__>:
    1ad0:	ee 0f       	add	r30, r30
    1ad2:	ff 1f       	adc	r31, r31
    1ad4:	05 90       	lpm	r0, Z+
    1ad6:	f4 91       	lpm	r31, Z
    1ad8:	e0 2d       	mov	r30, r0
    1ada:	09 94       	ijmp

00001adc <__itoa_ncheck>:
    1adc:	bb 27       	eor	r27, r27
    1ade:	4a 30       	cpi	r20, 0x0A	; 10
    1ae0:	31 f4       	brne	.+12     	; 0x1aee <__itoa_ncheck+0x12>
    1ae2:	99 23       	and	r25, r25
    1ae4:	22 f4       	brpl	.+8      	; 0x1aee <__itoa_ncheck+0x12>
    1ae6:	bd e2       	ldi	r27, 0x2D	; 45
    1ae8:	90 95       	com	r25
    1aea:	81 95       	neg	r24
    1aec:	9f 4f       	sbci	r25, 0xFF	; 255
    1aee:	0c 94 7a 0d 	jmp	0x1af4	; 0x1af4 <__utoa_common>

00001af2 <__utoa_ncheck>:
    1af2:	bb 27       	eor	r27, r27

00001af4 <__utoa_common>:
    1af4:	fb 01       	movw	r30, r22
    1af6:	55 27       	eor	r21, r21
    1af8:	aa 27       	eor	r26, r26
    1afa:	88 0f       	add	r24, r24
    1afc:	99 1f       	adc	r25, r25
    1afe:	aa 1f       	adc	r26, r26
    1b00:	a4 17       	cp	r26, r20
    1b02:	10 f0       	brcs	.+4      	; 0x1b08 <__utoa_common+0x14>
    1b04:	a4 1b       	sub	r26, r20
    1b06:	83 95       	inc	r24
    1b08:	50 51       	subi	r21, 0x10	; 16
    1b0a:	b9 f7       	brne	.-18     	; 0x1afa <__utoa_common+0x6>
    1b0c:	a0 5d       	subi	r26, 0xD0	; 208
    1b0e:	aa 33       	cpi	r26, 0x3A	; 58
    1b10:	08 f0       	brcs	.+2      	; 0x1b14 <__utoa_common+0x20>
    1b12:	a9 5d       	subi	r26, 0xD9	; 217
    1b14:	a1 93       	st	Z+, r26
    1b16:	00 97       	sbiw	r24, 0x00	; 0
    1b18:	79 f7       	brne	.-34     	; 0x1af8 <__utoa_common+0x4>
    1b1a:	b1 11       	cpse	r27, r1
    1b1c:	b1 93       	st	Z+, r27
    1b1e:	11 92       	st	Z+, r1
    1b20:	cb 01       	movw	r24, r22
    1b22:	0c 94 ac 0f 	jmp	0x1f58	; 0x1f58 <strrev>

00001b26 <sprintf>:
    1b26:	ae e0       	ldi	r26, 0x0E	; 14
    1b28:	b0 e0       	ldi	r27, 0x00	; 0
    1b2a:	e9 e9       	ldi	r30, 0x99	; 153
    1b2c:	fd e0       	ldi	r31, 0x0D	; 13
    1b2e:	0c 94 64 10 	jmp	0x20c8	; 0x20c8 <__prologue_saves__+0x1c>
    1b32:	0d 89       	ldd	r16, Y+21	; 0x15
    1b34:	1e 89       	ldd	r17, Y+22	; 0x16
    1b36:	86 e0       	ldi	r24, 0x06	; 6
    1b38:	8c 83       	std	Y+4, r24	; 0x04
    1b3a:	1a 83       	std	Y+2, r17	; 0x02
    1b3c:	09 83       	std	Y+1, r16	; 0x01
    1b3e:	8f ef       	ldi	r24, 0xFF	; 255
    1b40:	9f e7       	ldi	r25, 0x7F	; 127
    1b42:	9e 83       	std	Y+6, r25	; 0x06
    1b44:	8d 83       	std	Y+5, r24	; 0x05
    1b46:	ae 01       	movw	r20, r28
    1b48:	47 5e       	subi	r20, 0xE7	; 231
    1b4a:	5f 4f       	sbci	r21, 0xFF	; 255
    1b4c:	6f 89       	ldd	r22, Y+23	; 0x17
    1b4e:	78 8d       	ldd	r23, Y+24	; 0x18
    1b50:	ce 01       	movw	r24, r28
    1b52:	01 96       	adiw	r24, 0x01	; 1
    1b54:	0e 94 b5 0d 	call	0x1b6a	; 0x1b6a <vfprintf>
    1b58:	ef 81       	ldd	r30, Y+7	; 0x07
    1b5a:	f8 85       	ldd	r31, Y+8	; 0x08
    1b5c:	e0 0f       	add	r30, r16
    1b5e:	f1 1f       	adc	r31, r17
    1b60:	10 82       	st	Z, r1
    1b62:	2e 96       	adiw	r28, 0x0e	; 14
    1b64:	e4 e0       	ldi	r30, 0x04	; 4
    1b66:	0c 94 80 10 	jmp	0x2100	; 0x2100 <__epilogue_restores__+0x1c>

00001b6a <vfprintf>:
    1b6a:	ab e0       	ldi	r26, 0x0B	; 11
    1b6c:	b0 e0       	ldi	r27, 0x00	; 0
    1b6e:	eb eb       	ldi	r30, 0xBB	; 187
    1b70:	fd e0       	ldi	r31, 0x0D	; 13
    1b72:	0c 94 56 10 	jmp	0x20ac	; 0x20ac <__prologue_saves__>
    1b76:	6c 01       	movw	r12, r24
    1b78:	7b 01       	movw	r14, r22
    1b7a:	8a 01       	movw	r16, r20
    1b7c:	fc 01       	movw	r30, r24
    1b7e:	17 82       	std	Z+7, r1	; 0x07
    1b80:	16 82       	std	Z+6, r1	; 0x06
    1b82:	83 81       	ldd	r24, Z+3	; 0x03
    1b84:	81 ff       	sbrs	r24, 1
    1b86:	cc c1       	rjmp	.+920    	; 0x1f20 <vfprintf+0x3b6>
    1b88:	ce 01       	movw	r24, r28
    1b8a:	01 96       	adiw	r24, 0x01	; 1
    1b8c:	3c 01       	movw	r6, r24
    1b8e:	f6 01       	movw	r30, r12
    1b90:	93 81       	ldd	r25, Z+3	; 0x03
    1b92:	f7 01       	movw	r30, r14
    1b94:	93 fd       	sbrc	r25, 3
    1b96:	85 91       	lpm	r24, Z+
    1b98:	93 ff       	sbrs	r25, 3
    1b9a:	81 91       	ld	r24, Z+
    1b9c:	7f 01       	movw	r14, r30
    1b9e:	88 23       	and	r24, r24
    1ba0:	09 f4       	brne	.+2      	; 0x1ba4 <vfprintf+0x3a>
    1ba2:	ba c1       	rjmp	.+884    	; 0x1f18 <vfprintf+0x3ae>
    1ba4:	85 32       	cpi	r24, 0x25	; 37
    1ba6:	39 f4       	brne	.+14     	; 0x1bb6 <vfprintf+0x4c>
    1ba8:	93 fd       	sbrc	r25, 3
    1baa:	85 91       	lpm	r24, Z+
    1bac:	93 ff       	sbrs	r25, 3
    1bae:	81 91       	ld	r24, Z+
    1bb0:	7f 01       	movw	r14, r30
    1bb2:	85 32       	cpi	r24, 0x25	; 37
    1bb4:	29 f4       	brne	.+10     	; 0x1bc0 <vfprintf+0x56>
    1bb6:	b6 01       	movw	r22, r12
    1bb8:	90 e0       	ldi	r25, 0x00	; 0
    1bba:	0e 94 bc 0f 	call	0x1f78	; 0x1f78 <fputc>
    1bbe:	e7 cf       	rjmp	.-50     	; 0x1b8e <vfprintf+0x24>
    1bc0:	91 2c       	mov	r9, r1
    1bc2:	21 2c       	mov	r2, r1
    1bc4:	31 2c       	mov	r3, r1
    1bc6:	ff e1       	ldi	r31, 0x1F	; 31
    1bc8:	f3 15       	cp	r31, r3
    1bca:	d8 f0       	brcs	.+54     	; 0x1c02 <vfprintf+0x98>
    1bcc:	8b 32       	cpi	r24, 0x2B	; 43
    1bce:	79 f0       	breq	.+30     	; 0x1bee <vfprintf+0x84>
    1bd0:	38 f4       	brcc	.+14     	; 0x1be0 <vfprintf+0x76>
    1bd2:	80 32       	cpi	r24, 0x20	; 32
    1bd4:	79 f0       	breq	.+30     	; 0x1bf4 <vfprintf+0x8a>
    1bd6:	83 32       	cpi	r24, 0x23	; 35
    1bd8:	a1 f4       	brne	.+40     	; 0x1c02 <vfprintf+0x98>
    1bda:	23 2d       	mov	r18, r3
    1bdc:	20 61       	ori	r18, 0x10	; 16
    1bde:	1d c0       	rjmp	.+58     	; 0x1c1a <vfprintf+0xb0>
    1be0:	8d 32       	cpi	r24, 0x2D	; 45
    1be2:	61 f0       	breq	.+24     	; 0x1bfc <vfprintf+0x92>
    1be4:	80 33       	cpi	r24, 0x30	; 48
    1be6:	69 f4       	brne	.+26     	; 0x1c02 <vfprintf+0x98>
    1be8:	23 2d       	mov	r18, r3
    1bea:	21 60       	ori	r18, 0x01	; 1
    1bec:	16 c0       	rjmp	.+44     	; 0x1c1a <vfprintf+0xb0>
    1bee:	83 2d       	mov	r24, r3
    1bf0:	82 60       	ori	r24, 0x02	; 2
    1bf2:	38 2e       	mov	r3, r24
    1bf4:	e3 2d       	mov	r30, r3
    1bf6:	e4 60       	ori	r30, 0x04	; 4
    1bf8:	3e 2e       	mov	r3, r30
    1bfa:	2a c0       	rjmp	.+84     	; 0x1c50 <vfprintf+0xe6>
    1bfc:	f3 2d       	mov	r31, r3
    1bfe:	f8 60       	ori	r31, 0x08	; 8
    1c00:	1d c0       	rjmp	.+58     	; 0x1c3c <vfprintf+0xd2>
    1c02:	37 fc       	sbrc	r3, 7
    1c04:	2d c0       	rjmp	.+90     	; 0x1c60 <vfprintf+0xf6>
    1c06:	20 ed       	ldi	r18, 0xD0	; 208
    1c08:	28 0f       	add	r18, r24
    1c0a:	2a 30       	cpi	r18, 0x0A	; 10
    1c0c:	40 f0       	brcs	.+16     	; 0x1c1e <vfprintf+0xb4>
    1c0e:	8e 32       	cpi	r24, 0x2E	; 46
    1c10:	b9 f4       	brne	.+46     	; 0x1c40 <vfprintf+0xd6>
    1c12:	36 fc       	sbrc	r3, 6
    1c14:	81 c1       	rjmp	.+770    	; 0x1f18 <vfprintf+0x3ae>
    1c16:	23 2d       	mov	r18, r3
    1c18:	20 64       	ori	r18, 0x40	; 64
    1c1a:	32 2e       	mov	r3, r18
    1c1c:	19 c0       	rjmp	.+50     	; 0x1c50 <vfprintf+0xe6>
    1c1e:	36 fe       	sbrs	r3, 6
    1c20:	06 c0       	rjmp	.+12     	; 0x1c2e <vfprintf+0xc4>
    1c22:	8a e0       	ldi	r24, 0x0A	; 10
    1c24:	98 9e       	mul	r9, r24
    1c26:	20 0d       	add	r18, r0
    1c28:	11 24       	eor	r1, r1
    1c2a:	92 2e       	mov	r9, r18
    1c2c:	11 c0       	rjmp	.+34     	; 0x1c50 <vfprintf+0xe6>
    1c2e:	ea e0       	ldi	r30, 0x0A	; 10
    1c30:	2e 9e       	mul	r2, r30
    1c32:	20 0d       	add	r18, r0
    1c34:	11 24       	eor	r1, r1
    1c36:	22 2e       	mov	r2, r18
    1c38:	f3 2d       	mov	r31, r3
    1c3a:	f0 62       	ori	r31, 0x20	; 32
    1c3c:	3f 2e       	mov	r3, r31
    1c3e:	08 c0       	rjmp	.+16     	; 0x1c50 <vfprintf+0xe6>
    1c40:	8c 36       	cpi	r24, 0x6C	; 108
    1c42:	21 f4       	brne	.+8      	; 0x1c4c <vfprintf+0xe2>
    1c44:	83 2d       	mov	r24, r3
    1c46:	80 68       	ori	r24, 0x80	; 128
    1c48:	38 2e       	mov	r3, r24
    1c4a:	02 c0       	rjmp	.+4      	; 0x1c50 <vfprintf+0xe6>
    1c4c:	88 36       	cpi	r24, 0x68	; 104
    1c4e:	41 f4       	brne	.+16     	; 0x1c60 <vfprintf+0xf6>
    1c50:	f7 01       	movw	r30, r14
    1c52:	93 fd       	sbrc	r25, 3
    1c54:	85 91       	lpm	r24, Z+
    1c56:	93 ff       	sbrs	r25, 3
    1c58:	81 91       	ld	r24, Z+
    1c5a:	7f 01       	movw	r14, r30
    1c5c:	81 11       	cpse	r24, r1
    1c5e:	b3 cf       	rjmp	.-154    	; 0x1bc6 <vfprintf+0x5c>
    1c60:	98 2f       	mov	r25, r24
    1c62:	9f 7d       	andi	r25, 0xDF	; 223
    1c64:	95 54       	subi	r25, 0x45	; 69
    1c66:	93 30       	cpi	r25, 0x03	; 3
    1c68:	28 f4       	brcc	.+10     	; 0x1c74 <vfprintf+0x10a>
    1c6a:	0c 5f       	subi	r16, 0xFC	; 252
    1c6c:	1f 4f       	sbci	r17, 0xFF	; 255
    1c6e:	9f e3       	ldi	r25, 0x3F	; 63
    1c70:	99 83       	std	Y+1, r25	; 0x01
    1c72:	0d c0       	rjmp	.+26     	; 0x1c8e <vfprintf+0x124>
    1c74:	83 36       	cpi	r24, 0x63	; 99
    1c76:	31 f0       	breq	.+12     	; 0x1c84 <vfprintf+0x11a>
    1c78:	83 37       	cpi	r24, 0x73	; 115
    1c7a:	71 f0       	breq	.+28     	; 0x1c98 <vfprintf+0x12e>
    1c7c:	83 35       	cpi	r24, 0x53	; 83
    1c7e:	09 f0       	breq	.+2      	; 0x1c82 <vfprintf+0x118>
    1c80:	59 c0       	rjmp	.+178    	; 0x1d34 <vfprintf+0x1ca>
    1c82:	21 c0       	rjmp	.+66     	; 0x1cc6 <vfprintf+0x15c>
    1c84:	f8 01       	movw	r30, r16
    1c86:	80 81       	ld	r24, Z
    1c88:	89 83       	std	Y+1, r24	; 0x01
    1c8a:	0e 5f       	subi	r16, 0xFE	; 254
    1c8c:	1f 4f       	sbci	r17, 0xFF	; 255
    1c8e:	88 24       	eor	r8, r8
    1c90:	83 94       	inc	r8
    1c92:	91 2c       	mov	r9, r1
    1c94:	53 01       	movw	r10, r6
    1c96:	13 c0       	rjmp	.+38     	; 0x1cbe <vfprintf+0x154>
    1c98:	28 01       	movw	r4, r16
    1c9a:	f2 e0       	ldi	r31, 0x02	; 2
    1c9c:	4f 0e       	add	r4, r31
    1c9e:	51 1c       	adc	r5, r1
    1ca0:	f8 01       	movw	r30, r16
    1ca2:	a0 80       	ld	r10, Z
    1ca4:	b1 80       	ldd	r11, Z+1	; 0x01
    1ca6:	36 fe       	sbrs	r3, 6
    1ca8:	03 c0       	rjmp	.+6      	; 0x1cb0 <vfprintf+0x146>
    1caa:	69 2d       	mov	r22, r9
    1cac:	70 e0       	ldi	r23, 0x00	; 0
    1cae:	02 c0       	rjmp	.+4      	; 0x1cb4 <vfprintf+0x14a>
    1cb0:	6f ef       	ldi	r22, 0xFF	; 255
    1cb2:	7f ef       	ldi	r23, 0xFF	; 255
    1cb4:	c5 01       	movw	r24, r10
    1cb6:	0e 94 a1 0f 	call	0x1f42	; 0x1f42 <strnlen>
    1cba:	4c 01       	movw	r8, r24
    1cbc:	82 01       	movw	r16, r4
    1cbe:	f3 2d       	mov	r31, r3
    1cc0:	ff 77       	andi	r31, 0x7F	; 127
    1cc2:	3f 2e       	mov	r3, r31
    1cc4:	16 c0       	rjmp	.+44     	; 0x1cf2 <vfprintf+0x188>
    1cc6:	28 01       	movw	r4, r16
    1cc8:	22 e0       	ldi	r18, 0x02	; 2
    1cca:	42 0e       	add	r4, r18
    1ccc:	51 1c       	adc	r5, r1
    1cce:	f8 01       	movw	r30, r16
    1cd0:	a0 80       	ld	r10, Z
    1cd2:	b1 80       	ldd	r11, Z+1	; 0x01
    1cd4:	36 fe       	sbrs	r3, 6
    1cd6:	03 c0       	rjmp	.+6      	; 0x1cde <vfprintf+0x174>
    1cd8:	69 2d       	mov	r22, r9
    1cda:	70 e0       	ldi	r23, 0x00	; 0
    1cdc:	02 c0       	rjmp	.+4      	; 0x1ce2 <vfprintf+0x178>
    1cde:	6f ef       	ldi	r22, 0xFF	; 255
    1ce0:	7f ef       	ldi	r23, 0xFF	; 255
    1ce2:	c5 01       	movw	r24, r10
    1ce4:	0e 94 96 0f 	call	0x1f2c	; 0x1f2c <strnlen_P>
    1ce8:	4c 01       	movw	r8, r24
    1cea:	f3 2d       	mov	r31, r3
    1cec:	f0 68       	ori	r31, 0x80	; 128
    1cee:	3f 2e       	mov	r3, r31
    1cf0:	82 01       	movw	r16, r4
    1cf2:	33 fc       	sbrc	r3, 3
    1cf4:	1b c0       	rjmp	.+54     	; 0x1d2c <vfprintf+0x1c2>
    1cf6:	82 2d       	mov	r24, r2
    1cf8:	90 e0       	ldi	r25, 0x00	; 0
    1cfa:	88 16       	cp	r8, r24
    1cfc:	99 06       	cpc	r9, r25
    1cfe:	b0 f4       	brcc	.+44     	; 0x1d2c <vfprintf+0x1c2>
    1d00:	b6 01       	movw	r22, r12
    1d02:	80 e2       	ldi	r24, 0x20	; 32
    1d04:	90 e0       	ldi	r25, 0x00	; 0
    1d06:	0e 94 bc 0f 	call	0x1f78	; 0x1f78 <fputc>
    1d0a:	2a 94       	dec	r2
    1d0c:	f4 cf       	rjmp	.-24     	; 0x1cf6 <vfprintf+0x18c>
    1d0e:	f5 01       	movw	r30, r10
    1d10:	37 fc       	sbrc	r3, 7
    1d12:	85 91       	lpm	r24, Z+
    1d14:	37 fe       	sbrs	r3, 7
    1d16:	81 91       	ld	r24, Z+
    1d18:	5f 01       	movw	r10, r30
    1d1a:	b6 01       	movw	r22, r12
    1d1c:	90 e0       	ldi	r25, 0x00	; 0
    1d1e:	0e 94 bc 0f 	call	0x1f78	; 0x1f78 <fputc>
    1d22:	21 10       	cpse	r2, r1
    1d24:	2a 94       	dec	r2
    1d26:	21 e0       	ldi	r18, 0x01	; 1
    1d28:	82 1a       	sub	r8, r18
    1d2a:	91 08       	sbc	r9, r1
    1d2c:	81 14       	cp	r8, r1
    1d2e:	91 04       	cpc	r9, r1
    1d30:	71 f7       	brne	.-36     	; 0x1d0e <vfprintf+0x1a4>
    1d32:	e8 c0       	rjmp	.+464    	; 0x1f04 <vfprintf+0x39a>
    1d34:	84 36       	cpi	r24, 0x64	; 100
    1d36:	11 f0       	breq	.+4      	; 0x1d3c <vfprintf+0x1d2>
    1d38:	89 36       	cpi	r24, 0x69	; 105
    1d3a:	41 f5       	brne	.+80     	; 0x1d8c <vfprintf+0x222>
    1d3c:	f8 01       	movw	r30, r16
    1d3e:	37 fe       	sbrs	r3, 7
    1d40:	07 c0       	rjmp	.+14     	; 0x1d50 <vfprintf+0x1e6>
    1d42:	60 81       	ld	r22, Z
    1d44:	71 81       	ldd	r23, Z+1	; 0x01
    1d46:	82 81       	ldd	r24, Z+2	; 0x02
    1d48:	93 81       	ldd	r25, Z+3	; 0x03
    1d4a:	0c 5f       	subi	r16, 0xFC	; 252
    1d4c:	1f 4f       	sbci	r17, 0xFF	; 255
    1d4e:	08 c0       	rjmp	.+16     	; 0x1d60 <vfprintf+0x1f6>
    1d50:	60 81       	ld	r22, Z
    1d52:	71 81       	ldd	r23, Z+1	; 0x01
    1d54:	07 2e       	mov	r0, r23
    1d56:	00 0c       	add	r0, r0
    1d58:	88 0b       	sbc	r24, r24
    1d5a:	99 0b       	sbc	r25, r25
    1d5c:	0e 5f       	subi	r16, 0xFE	; 254
    1d5e:	1f 4f       	sbci	r17, 0xFF	; 255
    1d60:	f3 2d       	mov	r31, r3
    1d62:	ff 76       	andi	r31, 0x6F	; 111
    1d64:	3f 2e       	mov	r3, r31
    1d66:	97 ff       	sbrs	r25, 7
    1d68:	09 c0       	rjmp	.+18     	; 0x1d7c <vfprintf+0x212>
    1d6a:	90 95       	com	r25
    1d6c:	80 95       	com	r24
    1d6e:	70 95       	com	r23
    1d70:	61 95       	neg	r22
    1d72:	7f 4f       	sbci	r23, 0xFF	; 255
    1d74:	8f 4f       	sbci	r24, 0xFF	; 255
    1d76:	9f 4f       	sbci	r25, 0xFF	; 255
    1d78:	f0 68       	ori	r31, 0x80	; 128
    1d7a:	3f 2e       	mov	r3, r31
    1d7c:	2a e0       	ldi	r18, 0x0A	; 10
    1d7e:	30 e0       	ldi	r19, 0x00	; 0
    1d80:	a3 01       	movw	r20, r6
    1d82:	0e 94 f8 0f 	call	0x1ff0	; 0x1ff0 <__ultoa_invert>
    1d86:	88 2e       	mov	r8, r24
    1d88:	86 18       	sub	r8, r6
    1d8a:	45 c0       	rjmp	.+138    	; 0x1e16 <vfprintf+0x2ac>
    1d8c:	85 37       	cpi	r24, 0x75	; 117
    1d8e:	31 f4       	brne	.+12     	; 0x1d9c <vfprintf+0x232>
    1d90:	23 2d       	mov	r18, r3
    1d92:	2f 7e       	andi	r18, 0xEF	; 239
    1d94:	b2 2e       	mov	r11, r18
    1d96:	2a e0       	ldi	r18, 0x0A	; 10
    1d98:	30 e0       	ldi	r19, 0x00	; 0
    1d9a:	25 c0       	rjmp	.+74     	; 0x1de6 <vfprintf+0x27c>
    1d9c:	93 2d       	mov	r25, r3
    1d9e:	99 7f       	andi	r25, 0xF9	; 249
    1da0:	b9 2e       	mov	r11, r25
    1da2:	8f 36       	cpi	r24, 0x6F	; 111
    1da4:	c1 f0       	breq	.+48     	; 0x1dd6 <vfprintf+0x26c>
    1da6:	18 f4       	brcc	.+6      	; 0x1dae <vfprintf+0x244>
    1da8:	88 35       	cpi	r24, 0x58	; 88
    1daa:	79 f0       	breq	.+30     	; 0x1dca <vfprintf+0x260>
    1dac:	b5 c0       	rjmp	.+362    	; 0x1f18 <vfprintf+0x3ae>
    1dae:	80 37       	cpi	r24, 0x70	; 112
    1db0:	19 f0       	breq	.+6      	; 0x1db8 <vfprintf+0x24e>
    1db2:	88 37       	cpi	r24, 0x78	; 120
    1db4:	21 f0       	breq	.+8      	; 0x1dbe <vfprintf+0x254>
    1db6:	b0 c0       	rjmp	.+352    	; 0x1f18 <vfprintf+0x3ae>
    1db8:	e9 2f       	mov	r30, r25
    1dba:	e0 61       	ori	r30, 0x10	; 16
    1dbc:	be 2e       	mov	r11, r30
    1dbe:	b4 fe       	sbrs	r11, 4
    1dc0:	0d c0       	rjmp	.+26     	; 0x1ddc <vfprintf+0x272>
    1dc2:	fb 2d       	mov	r31, r11
    1dc4:	f4 60       	ori	r31, 0x04	; 4
    1dc6:	bf 2e       	mov	r11, r31
    1dc8:	09 c0       	rjmp	.+18     	; 0x1ddc <vfprintf+0x272>
    1dca:	34 fe       	sbrs	r3, 4
    1dcc:	0a c0       	rjmp	.+20     	; 0x1de2 <vfprintf+0x278>
    1dce:	29 2f       	mov	r18, r25
    1dd0:	26 60       	ori	r18, 0x06	; 6
    1dd2:	b2 2e       	mov	r11, r18
    1dd4:	06 c0       	rjmp	.+12     	; 0x1de2 <vfprintf+0x278>
    1dd6:	28 e0       	ldi	r18, 0x08	; 8
    1dd8:	30 e0       	ldi	r19, 0x00	; 0
    1dda:	05 c0       	rjmp	.+10     	; 0x1de6 <vfprintf+0x27c>
    1ddc:	20 e1       	ldi	r18, 0x10	; 16
    1dde:	30 e0       	ldi	r19, 0x00	; 0
    1de0:	02 c0       	rjmp	.+4      	; 0x1de6 <vfprintf+0x27c>
    1de2:	20 e1       	ldi	r18, 0x10	; 16
    1de4:	32 e0       	ldi	r19, 0x02	; 2
    1de6:	f8 01       	movw	r30, r16
    1de8:	b7 fe       	sbrs	r11, 7
    1dea:	07 c0       	rjmp	.+14     	; 0x1dfa <vfprintf+0x290>
    1dec:	60 81       	ld	r22, Z
    1dee:	71 81       	ldd	r23, Z+1	; 0x01
    1df0:	82 81       	ldd	r24, Z+2	; 0x02
    1df2:	93 81       	ldd	r25, Z+3	; 0x03
    1df4:	0c 5f       	subi	r16, 0xFC	; 252
    1df6:	1f 4f       	sbci	r17, 0xFF	; 255
    1df8:	06 c0       	rjmp	.+12     	; 0x1e06 <vfprintf+0x29c>
    1dfa:	60 81       	ld	r22, Z
    1dfc:	71 81       	ldd	r23, Z+1	; 0x01
    1dfe:	80 e0       	ldi	r24, 0x00	; 0
    1e00:	90 e0       	ldi	r25, 0x00	; 0
    1e02:	0e 5f       	subi	r16, 0xFE	; 254
    1e04:	1f 4f       	sbci	r17, 0xFF	; 255
    1e06:	a3 01       	movw	r20, r6
    1e08:	0e 94 f8 0f 	call	0x1ff0	; 0x1ff0 <__ultoa_invert>
    1e0c:	88 2e       	mov	r8, r24
    1e0e:	86 18       	sub	r8, r6
    1e10:	fb 2d       	mov	r31, r11
    1e12:	ff 77       	andi	r31, 0x7F	; 127
    1e14:	3f 2e       	mov	r3, r31
    1e16:	36 fe       	sbrs	r3, 6
    1e18:	0d c0       	rjmp	.+26     	; 0x1e34 <vfprintf+0x2ca>
    1e1a:	23 2d       	mov	r18, r3
    1e1c:	2e 7f       	andi	r18, 0xFE	; 254
    1e1e:	a2 2e       	mov	r10, r18
    1e20:	89 14       	cp	r8, r9
    1e22:	58 f4       	brcc	.+22     	; 0x1e3a <vfprintf+0x2d0>
    1e24:	34 fe       	sbrs	r3, 4
    1e26:	0b c0       	rjmp	.+22     	; 0x1e3e <vfprintf+0x2d4>
    1e28:	32 fc       	sbrc	r3, 2
    1e2a:	09 c0       	rjmp	.+18     	; 0x1e3e <vfprintf+0x2d4>
    1e2c:	83 2d       	mov	r24, r3
    1e2e:	8e 7e       	andi	r24, 0xEE	; 238
    1e30:	a8 2e       	mov	r10, r24
    1e32:	05 c0       	rjmp	.+10     	; 0x1e3e <vfprintf+0x2d4>
    1e34:	b8 2c       	mov	r11, r8
    1e36:	a3 2c       	mov	r10, r3
    1e38:	03 c0       	rjmp	.+6      	; 0x1e40 <vfprintf+0x2d6>
    1e3a:	b8 2c       	mov	r11, r8
    1e3c:	01 c0       	rjmp	.+2      	; 0x1e40 <vfprintf+0x2d6>
    1e3e:	b9 2c       	mov	r11, r9
    1e40:	a4 fe       	sbrs	r10, 4
    1e42:	0f c0       	rjmp	.+30     	; 0x1e62 <vfprintf+0x2f8>
    1e44:	fe 01       	movw	r30, r28
    1e46:	e8 0d       	add	r30, r8
    1e48:	f1 1d       	adc	r31, r1
    1e4a:	80 81       	ld	r24, Z
    1e4c:	80 33       	cpi	r24, 0x30	; 48
    1e4e:	21 f4       	brne	.+8      	; 0x1e58 <vfprintf+0x2ee>
    1e50:	9a 2d       	mov	r25, r10
    1e52:	99 7e       	andi	r25, 0xE9	; 233
    1e54:	a9 2e       	mov	r10, r25
    1e56:	09 c0       	rjmp	.+18     	; 0x1e6a <vfprintf+0x300>
    1e58:	a2 fe       	sbrs	r10, 2
    1e5a:	06 c0       	rjmp	.+12     	; 0x1e68 <vfprintf+0x2fe>
    1e5c:	b3 94       	inc	r11
    1e5e:	b3 94       	inc	r11
    1e60:	04 c0       	rjmp	.+8      	; 0x1e6a <vfprintf+0x300>
    1e62:	8a 2d       	mov	r24, r10
    1e64:	86 78       	andi	r24, 0x86	; 134
    1e66:	09 f0       	breq	.+2      	; 0x1e6a <vfprintf+0x300>
    1e68:	b3 94       	inc	r11
    1e6a:	a3 fc       	sbrc	r10, 3
    1e6c:	11 c0       	rjmp	.+34     	; 0x1e90 <vfprintf+0x326>
    1e6e:	a0 fe       	sbrs	r10, 0
    1e70:	06 c0       	rjmp	.+12     	; 0x1e7e <vfprintf+0x314>
    1e72:	b2 14       	cp	r11, r2
    1e74:	88 f4       	brcc	.+34     	; 0x1e98 <vfprintf+0x32e>
    1e76:	28 0c       	add	r2, r8
    1e78:	92 2c       	mov	r9, r2
    1e7a:	9b 18       	sub	r9, r11
    1e7c:	0e c0       	rjmp	.+28     	; 0x1e9a <vfprintf+0x330>
    1e7e:	b2 14       	cp	r11, r2
    1e80:	60 f4       	brcc	.+24     	; 0x1e9a <vfprintf+0x330>
    1e82:	b6 01       	movw	r22, r12
    1e84:	80 e2       	ldi	r24, 0x20	; 32
    1e86:	90 e0       	ldi	r25, 0x00	; 0
    1e88:	0e 94 bc 0f 	call	0x1f78	; 0x1f78 <fputc>
    1e8c:	b3 94       	inc	r11
    1e8e:	f7 cf       	rjmp	.-18     	; 0x1e7e <vfprintf+0x314>
    1e90:	b2 14       	cp	r11, r2
    1e92:	18 f4       	brcc	.+6      	; 0x1e9a <vfprintf+0x330>
    1e94:	2b 18       	sub	r2, r11
    1e96:	02 c0       	rjmp	.+4      	; 0x1e9c <vfprintf+0x332>
    1e98:	98 2c       	mov	r9, r8
    1e9a:	21 2c       	mov	r2, r1
    1e9c:	a4 fe       	sbrs	r10, 4
    1e9e:	10 c0       	rjmp	.+32     	; 0x1ec0 <vfprintf+0x356>
    1ea0:	b6 01       	movw	r22, r12
    1ea2:	80 e3       	ldi	r24, 0x30	; 48
    1ea4:	90 e0       	ldi	r25, 0x00	; 0
    1ea6:	0e 94 bc 0f 	call	0x1f78	; 0x1f78 <fputc>
    1eaa:	a2 fe       	sbrs	r10, 2
    1eac:	17 c0       	rjmp	.+46     	; 0x1edc <vfprintf+0x372>
    1eae:	a1 fc       	sbrc	r10, 1
    1eb0:	03 c0       	rjmp	.+6      	; 0x1eb8 <vfprintf+0x34e>
    1eb2:	88 e7       	ldi	r24, 0x78	; 120
    1eb4:	90 e0       	ldi	r25, 0x00	; 0
    1eb6:	02 c0       	rjmp	.+4      	; 0x1ebc <vfprintf+0x352>
    1eb8:	88 e5       	ldi	r24, 0x58	; 88
    1eba:	90 e0       	ldi	r25, 0x00	; 0
    1ebc:	b6 01       	movw	r22, r12
    1ebe:	0c c0       	rjmp	.+24     	; 0x1ed8 <vfprintf+0x36e>
    1ec0:	8a 2d       	mov	r24, r10
    1ec2:	86 78       	andi	r24, 0x86	; 134
    1ec4:	59 f0       	breq	.+22     	; 0x1edc <vfprintf+0x372>
    1ec6:	a1 fe       	sbrs	r10, 1
    1ec8:	02 c0       	rjmp	.+4      	; 0x1ece <vfprintf+0x364>
    1eca:	8b e2       	ldi	r24, 0x2B	; 43
    1ecc:	01 c0       	rjmp	.+2      	; 0x1ed0 <vfprintf+0x366>
    1ece:	80 e2       	ldi	r24, 0x20	; 32
    1ed0:	a7 fc       	sbrc	r10, 7
    1ed2:	8d e2       	ldi	r24, 0x2D	; 45
    1ed4:	b6 01       	movw	r22, r12
    1ed6:	90 e0       	ldi	r25, 0x00	; 0
    1ed8:	0e 94 bc 0f 	call	0x1f78	; 0x1f78 <fputc>
    1edc:	89 14       	cp	r8, r9
    1ede:	38 f4       	brcc	.+14     	; 0x1eee <vfprintf+0x384>
    1ee0:	b6 01       	movw	r22, r12
    1ee2:	80 e3       	ldi	r24, 0x30	; 48
    1ee4:	90 e0       	ldi	r25, 0x00	; 0
    1ee6:	0e 94 bc 0f 	call	0x1f78	; 0x1f78 <fputc>
    1eea:	9a 94       	dec	r9
    1eec:	f7 cf       	rjmp	.-18     	; 0x1edc <vfprintf+0x372>
    1eee:	8a 94       	dec	r8
    1ef0:	f3 01       	movw	r30, r6
    1ef2:	e8 0d       	add	r30, r8
    1ef4:	f1 1d       	adc	r31, r1
    1ef6:	80 81       	ld	r24, Z
    1ef8:	b6 01       	movw	r22, r12
    1efa:	90 e0       	ldi	r25, 0x00	; 0
    1efc:	0e 94 bc 0f 	call	0x1f78	; 0x1f78 <fputc>
    1f00:	81 10       	cpse	r8, r1
    1f02:	f5 cf       	rjmp	.-22     	; 0x1eee <vfprintf+0x384>
    1f04:	22 20       	and	r2, r2
    1f06:	09 f4       	brne	.+2      	; 0x1f0a <vfprintf+0x3a0>
    1f08:	42 ce       	rjmp	.-892    	; 0x1b8e <vfprintf+0x24>
    1f0a:	b6 01       	movw	r22, r12
    1f0c:	80 e2       	ldi	r24, 0x20	; 32
    1f0e:	90 e0       	ldi	r25, 0x00	; 0
    1f10:	0e 94 bc 0f 	call	0x1f78	; 0x1f78 <fputc>
    1f14:	2a 94       	dec	r2
    1f16:	f6 cf       	rjmp	.-20     	; 0x1f04 <vfprintf+0x39a>
    1f18:	f6 01       	movw	r30, r12
    1f1a:	86 81       	ldd	r24, Z+6	; 0x06
    1f1c:	97 81       	ldd	r25, Z+7	; 0x07
    1f1e:	02 c0       	rjmp	.+4      	; 0x1f24 <vfprintf+0x3ba>
    1f20:	8f ef       	ldi	r24, 0xFF	; 255
    1f22:	9f ef       	ldi	r25, 0xFF	; 255
    1f24:	2b 96       	adiw	r28, 0x0b	; 11
    1f26:	e2 e1       	ldi	r30, 0x12	; 18
    1f28:	0c 94 72 10 	jmp	0x20e4	; 0x20e4 <__epilogue_restores__>

00001f2c <strnlen_P>:
    1f2c:	fc 01       	movw	r30, r24
    1f2e:	05 90       	lpm	r0, Z+
    1f30:	61 50       	subi	r22, 0x01	; 1
    1f32:	70 40       	sbci	r23, 0x00	; 0
    1f34:	01 10       	cpse	r0, r1
    1f36:	d8 f7       	brcc	.-10     	; 0x1f2e <strnlen_P+0x2>
    1f38:	80 95       	com	r24
    1f3a:	90 95       	com	r25
    1f3c:	8e 0f       	add	r24, r30
    1f3e:	9f 1f       	adc	r25, r31
    1f40:	08 95       	ret

00001f42 <strnlen>:
    1f42:	fc 01       	movw	r30, r24
    1f44:	61 50       	subi	r22, 0x01	; 1
    1f46:	70 40       	sbci	r23, 0x00	; 0
    1f48:	01 90       	ld	r0, Z+
    1f4a:	01 10       	cpse	r0, r1
    1f4c:	d8 f7       	brcc	.-10     	; 0x1f44 <strnlen+0x2>
    1f4e:	80 95       	com	r24
    1f50:	90 95       	com	r25
    1f52:	8e 0f       	add	r24, r30
    1f54:	9f 1f       	adc	r25, r31
    1f56:	08 95       	ret

00001f58 <strrev>:
    1f58:	dc 01       	movw	r26, r24
    1f5a:	fc 01       	movw	r30, r24
    1f5c:	67 2f       	mov	r22, r23
    1f5e:	71 91       	ld	r23, Z+
    1f60:	77 23       	and	r23, r23
    1f62:	e1 f7       	brne	.-8      	; 0x1f5c <strrev+0x4>
    1f64:	32 97       	sbiw	r30, 0x02	; 2
    1f66:	04 c0       	rjmp	.+8      	; 0x1f70 <strrev+0x18>
    1f68:	7c 91       	ld	r23, X
    1f6a:	6d 93       	st	X+, r22
    1f6c:	70 83       	st	Z, r23
    1f6e:	62 91       	ld	r22, -Z
    1f70:	ae 17       	cp	r26, r30
    1f72:	bf 07       	cpc	r27, r31
    1f74:	c8 f3       	brcs	.-14     	; 0x1f68 <strrev+0x10>
    1f76:	08 95       	ret

00001f78 <fputc>:
    1f78:	0f 93       	push	r16
    1f7a:	1f 93       	push	r17
    1f7c:	cf 93       	push	r28
    1f7e:	df 93       	push	r29
    1f80:	fb 01       	movw	r30, r22
    1f82:	23 81       	ldd	r18, Z+3	; 0x03
    1f84:	21 fd       	sbrc	r18, 1
    1f86:	03 c0       	rjmp	.+6      	; 0x1f8e <fputc+0x16>
    1f88:	8f ef       	ldi	r24, 0xFF	; 255
    1f8a:	9f ef       	ldi	r25, 0xFF	; 255
    1f8c:	2c c0       	rjmp	.+88     	; 0x1fe6 <fputc+0x6e>
    1f8e:	22 ff       	sbrs	r18, 2
    1f90:	16 c0       	rjmp	.+44     	; 0x1fbe <fputc+0x46>
    1f92:	46 81       	ldd	r20, Z+6	; 0x06
    1f94:	57 81       	ldd	r21, Z+7	; 0x07
    1f96:	24 81       	ldd	r18, Z+4	; 0x04
    1f98:	35 81       	ldd	r19, Z+5	; 0x05
    1f9a:	42 17       	cp	r20, r18
    1f9c:	53 07       	cpc	r21, r19
    1f9e:	44 f4       	brge	.+16     	; 0x1fb0 <fputc+0x38>
    1fa0:	a0 81       	ld	r26, Z
    1fa2:	b1 81       	ldd	r27, Z+1	; 0x01
    1fa4:	9d 01       	movw	r18, r26
    1fa6:	2f 5f       	subi	r18, 0xFF	; 255
    1fa8:	3f 4f       	sbci	r19, 0xFF	; 255
    1faa:	31 83       	std	Z+1, r19	; 0x01
    1fac:	20 83       	st	Z, r18
    1fae:	8c 93       	st	X, r24
    1fb0:	26 81       	ldd	r18, Z+6	; 0x06
    1fb2:	37 81       	ldd	r19, Z+7	; 0x07
    1fb4:	2f 5f       	subi	r18, 0xFF	; 255
    1fb6:	3f 4f       	sbci	r19, 0xFF	; 255
    1fb8:	37 83       	std	Z+7, r19	; 0x07
    1fba:	26 83       	std	Z+6, r18	; 0x06
    1fbc:	14 c0       	rjmp	.+40     	; 0x1fe6 <fputc+0x6e>
    1fbe:	8b 01       	movw	r16, r22
    1fc0:	ec 01       	movw	r28, r24
    1fc2:	fb 01       	movw	r30, r22
    1fc4:	00 84       	ldd	r0, Z+8	; 0x08
    1fc6:	f1 85       	ldd	r31, Z+9	; 0x09
    1fc8:	e0 2d       	mov	r30, r0
    1fca:	09 95       	icall
    1fcc:	89 2b       	or	r24, r25
    1fce:	e1 f6       	brne	.-72     	; 0x1f88 <fputc+0x10>
    1fd0:	d8 01       	movw	r26, r16
    1fd2:	16 96       	adiw	r26, 0x06	; 6
    1fd4:	8d 91       	ld	r24, X+
    1fd6:	9c 91       	ld	r25, X
    1fd8:	17 97       	sbiw	r26, 0x07	; 7
    1fda:	01 96       	adiw	r24, 0x01	; 1
    1fdc:	17 96       	adiw	r26, 0x07	; 7
    1fde:	9c 93       	st	X, r25
    1fe0:	8e 93       	st	-X, r24
    1fe2:	16 97       	sbiw	r26, 0x06	; 6
    1fe4:	ce 01       	movw	r24, r28
    1fe6:	df 91       	pop	r29
    1fe8:	cf 91       	pop	r28
    1fea:	1f 91       	pop	r17
    1fec:	0f 91       	pop	r16
    1fee:	08 95       	ret

00001ff0 <__ultoa_invert>:
    1ff0:	fa 01       	movw	r30, r20
    1ff2:	aa 27       	eor	r26, r26
    1ff4:	28 30       	cpi	r18, 0x08	; 8
    1ff6:	51 f1       	breq	.+84     	; 0x204c <__ultoa_invert+0x5c>
    1ff8:	20 31       	cpi	r18, 0x10	; 16
    1ffa:	81 f1       	breq	.+96     	; 0x205c <__ultoa_invert+0x6c>
    1ffc:	e8 94       	clt
    1ffe:	6f 93       	push	r22
    2000:	6e 7f       	andi	r22, 0xFE	; 254
    2002:	6e 5f       	subi	r22, 0xFE	; 254
    2004:	7f 4f       	sbci	r23, 0xFF	; 255
    2006:	8f 4f       	sbci	r24, 0xFF	; 255
    2008:	9f 4f       	sbci	r25, 0xFF	; 255
    200a:	af 4f       	sbci	r26, 0xFF	; 255
    200c:	b1 e0       	ldi	r27, 0x01	; 1
    200e:	3e d0       	rcall	.+124    	; 0x208c <__ultoa_invert+0x9c>
    2010:	b4 e0       	ldi	r27, 0x04	; 4
    2012:	3c d0       	rcall	.+120    	; 0x208c <__ultoa_invert+0x9c>
    2014:	67 0f       	add	r22, r23
    2016:	78 1f       	adc	r23, r24
    2018:	89 1f       	adc	r24, r25
    201a:	9a 1f       	adc	r25, r26
    201c:	a1 1d       	adc	r26, r1
    201e:	68 0f       	add	r22, r24
    2020:	79 1f       	adc	r23, r25
    2022:	8a 1f       	adc	r24, r26
    2024:	91 1d       	adc	r25, r1
    2026:	a1 1d       	adc	r26, r1
    2028:	6a 0f       	add	r22, r26
    202a:	71 1d       	adc	r23, r1
    202c:	81 1d       	adc	r24, r1
    202e:	91 1d       	adc	r25, r1
    2030:	a1 1d       	adc	r26, r1
    2032:	20 d0       	rcall	.+64     	; 0x2074 <__ultoa_invert+0x84>
    2034:	09 f4       	brne	.+2      	; 0x2038 <__ultoa_invert+0x48>
    2036:	68 94       	set
    2038:	3f 91       	pop	r19
    203a:	2a e0       	ldi	r18, 0x0A	; 10
    203c:	26 9f       	mul	r18, r22
    203e:	11 24       	eor	r1, r1
    2040:	30 19       	sub	r19, r0
    2042:	30 5d       	subi	r19, 0xD0	; 208
    2044:	31 93       	st	Z+, r19
    2046:	de f6       	brtc	.-74     	; 0x1ffe <__ultoa_invert+0xe>
    2048:	cf 01       	movw	r24, r30
    204a:	08 95       	ret
    204c:	46 2f       	mov	r20, r22
    204e:	47 70       	andi	r20, 0x07	; 7
    2050:	40 5d       	subi	r20, 0xD0	; 208
    2052:	41 93       	st	Z+, r20
    2054:	b3 e0       	ldi	r27, 0x03	; 3
    2056:	0f d0       	rcall	.+30     	; 0x2076 <__ultoa_invert+0x86>
    2058:	c9 f7       	brne	.-14     	; 0x204c <__ultoa_invert+0x5c>
    205a:	f6 cf       	rjmp	.-20     	; 0x2048 <__ultoa_invert+0x58>
    205c:	46 2f       	mov	r20, r22
    205e:	4f 70       	andi	r20, 0x0F	; 15
    2060:	40 5d       	subi	r20, 0xD0	; 208
    2062:	4a 33       	cpi	r20, 0x3A	; 58
    2064:	18 f0       	brcs	.+6      	; 0x206c <__ultoa_invert+0x7c>
    2066:	49 5d       	subi	r20, 0xD9	; 217
    2068:	31 fd       	sbrc	r19, 1
    206a:	40 52       	subi	r20, 0x20	; 32
    206c:	41 93       	st	Z+, r20
    206e:	02 d0       	rcall	.+4      	; 0x2074 <__ultoa_invert+0x84>
    2070:	a9 f7       	brne	.-22     	; 0x205c <__ultoa_invert+0x6c>
    2072:	ea cf       	rjmp	.-44     	; 0x2048 <__ultoa_invert+0x58>
    2074:	b4 e0       	ldi	r27, 0x04	; 4
    2076:	a6 95       	lsr	r26
    2078:	97 95       	ror	r25
    207a:	87 95       	ror	r24
    207c:	77 95       	ror	r23
    207e:	67 95       	ror	r22
    2080:	ba 95       	dec	r27
    2082:	c9 f7       	brne	.-14     	; 0x2076 <__ultoa_invert+0x86>
    2084:	00 97       	sbiw	r24, 0x00	; 0
    2086:	61 05       	cpc	r22, r1
    2088:	71 05       	cpc	r23, r1
    208a:	08 95       	ret
    208c:	9b 01       	movw	r18, r22
    208e:	ac 01       	movw	r20, r24
    2090:	0a 2e       	mov	r0, r26
    2092:	06 94       	lsr	r0
    2094:	57 95       	ror	r21
    2096:	47 95       	ror	r20
    2098:	37 95       	ror	r19
    209a:	27 95       	ror	r18
    209c:	ba 95       	dec	r27
    209e:	c9 f7       	brne	.-14     	; 0x2092 <__ultoa_invert+0xa2>
    20a0:	62 0f       	add	r22, r18
    20a2:	73 1f       	adc	r23, r19
    20a4:	84 1f       	adc	r24, r20
    20a6:	95 1f       	adc	r25, r21
    20a8:	a0 1d       	adc	r26, r0
    20aa:	08 95       	ret

000020ac <__prologue_saves__>:
    20ac:	2f 92       	push	r2
    20ae:	3f 92       	push	r3
    20b0:	4f 92       	push	r4
    20b2:	5f 92       	push	r5
    20b4:	6f 92       	push	r6
    20b6:	7f 92       	push	r7
    20b8:	8f 92       	push	r8
    20ba:	9f 92       	push	r9
    20bc:	af 92       	push	r10
    20be:	bf 92       	push	r11
    20c0:	cf 92       	push	r12
    20c2:	df 92       	push	r13
    20c4:	ef 92       	push	r14
    20c6:	ff 92       	push	r15
    20c8:	0f 93       	push	r16
    20ca:	1f 93       	push	r17
    20cc:	cf 93       	push	r28
    20ce:	df 93       	push	r29
    20d0:	cd b7       	in	r28, 0x3d	; 61
    20d2:	de b7       	in	r29, 0x3e	; 62
    20d4:	ca 1b       	sub	r28, r26
    20d6:	db 0b       	sbc	r29, r27
    20d8:	0f b6       	in	r0, 0x3f	; 63
    20da:	f8 94       	cli
    20dc:	de bf       	out	0x3e, r29	; 62
    20de:	0f be       	out	0x3f, r0	; 63
    20e0:	cd bf       	out	0x3d, r28	; 61
    20e2:	09 94       	ijmp

000020e4 <__epilogue_restores__>:
    20e4:	2a 88       	ldd	r2, Y+18	; 0x12
    20e6:	39 88       	ldd	r3, Y+17	; 0x11
    20e8:	48 88       	ldd	r4, Y+16	; 0x10
    20ea:	5f 84       	ldd	r5, Y+15	; 0x0f
    20ec:	6e 84       	ldd	r6, Y+14	; 0x0e
    20ee:	7d 84       	ldd	r7, Y+13	; 0x0d
    20f0:	8c 84       	ldd	r8, Y+12	; 0x0c
    20f2:	9b 84       	ldd	r9, Y+11	; 0x0b
    20f4:	aa 84       	ldd	r10, Y+10	; 0x0a
    20f6:	b9 84       	ldd	r11, Y+9	; 0x09
    20f8:	c8 84       	ldd	r12, Y+8	; 0x08
    20fa:	df 80       	ldd	r13, Y+7	; 0x07
    20fc:	ee 80       	ldd	r14, Y+6	; 0x06
    20fe:	fd 80       	ldd	r15, Y+5	; 0x05
    2100:	0c 81       	ldd	r16, Y+4	; 0x04
    2102:	1b 81       	ldd	r17, Y+3	; 0x03
    2104:	aa 81       	ldd	r26, Y+2	; 0x02
    2106:	b9 81       	ldd	r27, Y+1	; 0x01
    2108:	ce 0f       	add	r28, r30
    210a:	d1 1d       	adc	r29, r1
    210c:	0f b6       	in	r0, 0x3f	; 63
    210e:	f8 94       	cli
    2110:	de bf       	out	0x3e, r29	; 62
    2112:	0f be       	out	0x3f, r0	; 63
    2114:	cd bf       	out	0x3d, r28	; 61
    2116:	ed 01       	movw	r28, r26
    2118:	08 95       	ret

0000211a <_exit>:
    211a:	f8 94       	cli

0000211c <__stop_program>:
    211c:	ff cf       	rjmp	.-2      	; 0x211c <__stop_program>
